(dp1
S'output'
p2
S"<type 'exceptions.NameError'> name 'username' is not defined"
p3
sS'layer'
p4
S'/Users/zhulielie/PycharmProjects/gap2py/web2py/applications/gap2py/views/index/index.html'
p5
sS'code'
p6
S'response.write(\'<!DOCTYPE html>\\n<html>\\n\\n\\n<head>\\n\\n    <meta charset="utf-8">\\n    <meta name="viewport" content="width=device-width, initial-scale=1.0">\\n\\n\\n    <title>\\n        \\xe4\\xb8\\xad\\xe7\\xbd\\x91\\xe9\\xa9\\xb0\\xe4\\xba\\x91\\xe9\\x9a\\x94\\xe7\\xa6\\xbb\\xe7\\xbd\\x91\\xe9\\x97\\xb8 WEB\\xe7\\xae\\xa1\\xe7\\x90\\x86\\n    </title>\\n\\n    <link href="\', escape=False)\nresponse.write(URL(\'static\',\'favicon.ico\'))\nresponse.write(\'" rel="shortcut icon" type="image/x-icon">\\n    <link href="\', escape=False)\nresponse.write(URL(\'static\',\'favicon.ico\'))\nresponse.write(\'" rel="icon" type="image/x-icon">\\n    <link href="\', escape=False)\nresponse.write(URL(\'static\',\'css/bootstrap.min.css\'))\nresponse.write(\'" rel="stylesheet">\\n    <link href="\', escape=False)\nresponse.write(URL(\'static\',\'font-awesome/css/font-awesome.css\'))\nresponse.write(\'" rel="stylesheet">\\n    <!-- Sweet Alert -->\\n    <link href="\', escape=False)\nresponse.write(URL(\'static\',\'css/plugins/sweetalert/sweetalert.css\'))\nresponse.write(\'" rel="stylesheet">\\n    <link href="\', escape=False)\nresponse.write(URL(\'static\',\'css/animate.css\'))\nresponse.write(\'" rel="stylesheet">\\n    <link href="\', escape=False)\nresponse.write(URL(\'static\',\'css/style.css\'))\nresponse.write(\'" rel="stylesheet">\\n\\n</head>\\n<body class="" data-spy="scroll" data-target=".navbar-example">\\n\\n<div id="wrapper">\\n\\n    <nav class="navbar-default navbar-static-side navbar-example" role="navigation">\\n        <div class="sidebar-collapse">\\n            <ul class="nav metismenu">\\n                <li class="nav-header">\\n                    <div class="dropdown profile-element" style="text-align: center"> <span>\\n                            <img alt="image" class="img-circle" style="height: 45px"\\n                                 src="\', escape=False)\nresponse.write(URL(\'static\',\'img/admin.png\'))\nresponse.write(\'"/>\\n                             </span>\\n                        <a data-toggle="dropdown" class="dropdown-toggle" href="#">\\n                            <span class="clear"> <span class="block m-t-xs"> <strong class="font-bold">\\xe6\\xac\\xa2\\xe8\\xbf\\x8e\\xe7\\x99\\xbb\\xe9\\x99\\x86</strong>\\n                             </span> <span class="text-muted text-xs block">\', escape=False)\nusername\nresponse.write(\' <b\\n                                    class="caret"></b></span> </span> </a>\\n                        <ul class="dropdown-menu animated fadeInRight m-t-xs">\\n                            <li><a href="#"\\n                                   onclick="$(\\\'#oldpass\\\').focus();swal({ title: \\\'\\xe4\\xbf\\xae\\xe6\\x94\\xb9\\xe5\\xaf\\x86\\xe7\\xa0\\x81\\\', text: \\\'\\xe5\\x8f\\xb3\\xe4\\xb8\\x8b\\xe8\\xa7\\x92\\xe8\\xbe\\x93\\xe5\\x85\\xa5\\xe6\\x97\\xa7\\xe5\\xaf\\x86\\xe7\\xa0\\x81\\xe5\\x92\\x8c\\xe6\\x96\\xb0\\xe5\\xaf\\x86\\xe7\\xa0\\x81\\\' });">\\xe4\\xbf\\xae\\xe6\\x94\\xb9\\xe5\\xaf\\x86\\xe7\\xa0\\x81</a>\\n                                <!--<li><a href="mailbox.html">Mailbox</a></li>-->\\n                            <li class="divider"></li>\\n                            <li><a href="/logout/">\\xe7\\x99\\xbb\\xe5\\x87\\xba</a></li>\\n                        </ul>\\n                    </div>\\n                    <div class="logo-element">\\n                        \\xe4\\xb8\\xad\\xe7\\xbd\\x91\\n                    </div>\\n                </li>\\n                <li>\\n                    <a href="#"><i class="fa fa-th-large"></i> <span class="nav-label">\\xe7\\xb3\\xbb\\xe7\\xbb\\x9f\\xe9\\x85\\x8d\\xe7\\xbd\\xae</span> <span\\n                            class="fa arrow"></span></a>\\n                    <ul class="nav nav-second-level">\\n                        <li><a href="#sysinfo">\\xe7\\xb3\\xbb\\xe7\\xbb\\x9f\\xe7\\x8a\\xb6\\xe6\\x80\\x81</a></li>\\n                        <li><a href="#inside">\\xe5\\x86\\x85\\xe9\\x83\\xa8\\xe4\\xb8\\xbb\\xe6\\x9c\\xba</a>\\n                        </li>\\n                        <li><a href="#outside">\\xe5\\xa4\\x96\\xe9\\x83\\xa8\\xe4\\xb8\\xbb\\xe6\\x9c\\xba</a>\\n                        </li>\\n                    </ul>\\n                </li>\\n                <li>\\n                    <a href="#"><i class="fa fa-bar-chart-o"></i> <span class="nav-label">\\xe5\\x87\\x86\\xe5\\x87\\xba\\xe6\\x8e\\x88\\xe4\\xbf\\xa1\\xe6\\x9c\\x8d\\xe5\\x8a\\xa1</span><span\\n                            class="fa arrow"></span></a>\\n                    <ul class="nav nav-second-level">\\n                        <li><a href="#tcpinside">TCP\\xe6\\x8e\\x88\\xe4\\xbf\\xa1\\xe8\\xae\\xbf\\xe9\\x97\\xae</a></li>\\n                        <li><a href="#ftpinside">FTP\\xe6\\x8e\\x88\\xe4\\xbf\\xa1\\xe8\\xae\\xbf\\xe9\\x97\\xae</a></li>\\n                        <li><a href="#orainside">ORACLE\\xe7\\x89\\xb9\\xe5\\x88\\xab\\xe6\\x8e\\x88\\xe4\\xbf\\xa1\\xe8\\xae\\xbf\\xe9\\x97\\xae</a></li>\\n                        <li><a href="#udpinside">UDP\\xe6\\x8e\\x88\\xe4\\xbf\\xa1\\xe8\\xae\\xbf\\xe9\\x97\\xae</a></li>\\n                    </ul>\\n                </li>\\n                <li>\\n                    <a href="#"><i class="fa fa-bar-chart-o"></i> <span class="nav-label">\\xe5\\x87\\x86\\xe5\\x85\\xa5\\xe6\\x8e\\x88\\xe4\\xbf\\xa1\\xe6\\x9c\\x8d\\xe5\\x8a\\xa1</span><span\\n                            class="fa arrow"></span></a>\\n                    <ul class="nav nav-second-level">\\n                        <li><a href="#tcpoutside">TCP\\xe6\\x8e\\x88\\xe4\\xbf\\xa1\\xe8\\xae\\xbf\\xe9\\x97\\xae</a></li>\\n                        <li><a href="#ftpoutside">FTP\\xe6\\x8e\\x88\\xe4\\xbf\\xa1\\xe8\\xae\\xbf\\xe9\\x97\\xae</a></li>\\n                        <li><a href="#oraoutside">ORACLE\\xe7\\x89\\xb9\\xe5\\x88\\xab\\xe6\\x8e\\x88\\xe4\\xbf\\xa1\\xe8\\xae\\xbf\\xe9\\x97\\xae</a></li>\\n                        <li><a href="#udpoutside">UDP\\xe6\\x8e\\x88\\xe4\\xbf\\xa1\\xe8\\xae\\xbf\\xe9\\x97\\xae</a></li>\\n                    </ul>\\n                </li>\\n                <li>\\n                    <a href="#"><i class="fa fa-bar-chart-o"></i> <span class="nav-label">\\xe8\\xae\\xa4\\xe8\\xaf\\x81\\xe7\\xae\\xa1\\xe7\\x90\\x86</span><span\\n                            class="fa arrow"></span></a>\\n                    <ul class="nav nav-second-level">\\n                        <li><a href="#authrule">\\xe8\\xae\\xa4\\xe8\\xaf\\x81\\xe8\\xa7\\x84\\xe5\\x88\\x99</a></li>\\n                    </ul>\\n                </li>\\n                <li>\\n                    <a href="#"><i class="fa fa-bar-chart-o"></i> <span class="nav-label">\\xe7\\x83\\xad\\xe5\\xa4\\x87\\xe4\\xbb\\xbd</span><span\\n                            class="fa arrow"></span></a>\\n                    <ul class="nav nav-second-level">\\n                        <li><a href="#hotbackup">\\xe5\\x8f\\x8c\\xe6\\x9c\\xba\\xe7\\x83\\xad\\xe5\\xa4\\x87\\xe9\\x85\\x8d\\xe7\\xbd\\xae</a></li>\\n\\n                    </ul>\\n                </li>\\n                <li>\\n                    <a href="#"><i class="fa fa-bar-chart-o"></i> <span class="nav-label">\\xe6\\x97\\xa5\\xe5\\xbf\\x97\\xe6\\x9f\\xa5\\xe7\\x9c\\x8b</span><span\\n                            class="fa arrow"></span></a>\\n                    <ul class="nav nav-second-level">\\n                        <li><a href="#loginside">\\xe5\\x86\\x85\\xe7\\xbd\\x91\\xe6\\x9c\\xba\\xe6\\x97\\xa5\\xe5\\xbf\\x97</a></li>\\n                        <li><a href="#logoutside">\\xe5\\xa4\\x96\\xe7\\xbd\\x91\\xe6\\x9c\\xba\\xe6\\x97\\xa5\\xe5\\xbf\\x97</a></li>\\n\\n                    </ul>\\n                </li>\\n            </ul>\\n        </div>\\n    </nav>\\n\\n    <div id="page-wrapper" class="gray-bg">\\n        <div class="row border-bottom" id="top">\\n            <nav class="navbar navbar-static-top  " role="navigation" style="margin-bottom: 0">\\n                <div class="navbar-header">\\n                    <a class="navbar-minimalize minimalize-styl-2 btn btn-primary " href="#"><i\\n                            class="fa fa-bars"></i>\\n                    </a>\\n\\n                </div>\\n                <ul class="nav navbar-top-links navbar-right">\\n                    <li>\\n                        <span class="m-r-sm text-muted welcome-message">\\xe4\\xb8\\xad\\xe7\\xbd\\x91\\xe9\\xa9\\xb0\\xe4\\xba\\x91\\xe9\\x9a\\x94\\xe7\\xa6\\xbb\\xe7\\xbd\\x91\\xe9\\x97\\xb8WEB\\xe7\\xae\\xa1\\xe7\\x90\\x86 </span><code>v6.99</code>\\n                    </li>\\n                    <li class="dropdown">\\n                        <a class="dropdown-toggle count-info" data-toggle="dropdown" href="#">\\n                            <i class="fa fa-bell"></i> <span class="label label-primary" id="nr_tip"></span>\\n                        </a>\\n                        <ul class="dropdown-menu dropdown-alerts">\\n                            <li>\\n                                <div class="text-center link-block">\\n                                    <strong id="nr_info">\\xe6\\xb2\\xa1\\xe6\\x9c\\x89\\xe4\\xbb\\xbb\\xe4\\xbd\\x95\\xe6\\x8f\\x90\\xe9\\x86\\x92</strong>\\n                                </div>\\n                            </li>\\n                        </ul>\\n                    </li>\\n\\n\\n                    <li>\\n                        <a href="/logout/">\\n                            <i class="fa fa-sign-out"></i> \\xe6\\xb3\\xa8\\xe9\\x94\\x80\\n                        </a>\\n                    </li>\\n                </ul>\\n\\n            </nav>\\n        </div>\\n        <!--<div class="row wrapper border-bottom white-bg page-heading">-->\\n        <!--<div class="col-sm-4">-->\\n        <!--<h2>This is main title</h2>-->\\n        <!--<ol class="breadcrumb">-->\\n        <!--<li>-->\\n        <!--<a href="index.html">This is</a>-->\\n        <!--</li>-->\\n        <!--<li class="active">-->\\n        <!--<strong>Breadcrumb</strong>-->\\n        <!--</li>-->\\n        <!--</ol>-->\\n        <!--</div>-->\\n        <!--<div class="col-sm-8">-->\\n        <!--<div class="title-action">-->\\n        <!--<a href="" class="btn btn-primary">\\xe4\\xbf\\x9d\\xe5\\xad\\x98</a>-->\\n        <!--<a href="" class="btn btn-primary">\\xe9\\x87\\x8d\\xe5\\x90\\xaf</a>-->\\n        <!--<a href="" class="btn btn-primary">\\xe5\\x85\\xb3\\xe6\\x9c\\xba</a>-->\\n        <!--</div>-->\\n        <!--</div>-->\\n        <!--</div>-->\\n\\n        <div class="wrapper wrapper-content">\\n            <div class="row">\\n                <div class="col-lg-12">\\n                    <div class="ibox float-e-margins">\\n                        <div class="ibox-title">\\n                            <h5 id="sysinfo">\\xe7\\xb3\\xbb\\xe7\\xbb\\x9f\\xe4\\xbf\\xa1\\xe6\\x81\\xaf <code id="refresh_info">\\xe6\\xaf\\x8f1\\xe5\\x88\\x86\\xe9\\x92\\x9f\\xe5\\x88\\xb7\\xe6\\x96\\xb0</code></h5>\\n\\n                            <div class="ibox-tools">\\n                                <a class="collapse-link">\\n                                    <i class="fa fa-chevron-up"></i>\\n                                </a>\\n                                <a class="dropdown-toggle" data-toggle="dropdown" href="#">\\n                                    <i class="fa fa-refresh"></i>\\n                                </a>\\n                                <ul class="dropdown-menu dropdown-user zll_fresh">\\n                                    <li zll_act="0"><a href="#">\\xe4\\xb8\\x8d\\xe5\\x88\\xb7\\xe6\\x96\\xb0</a>\\n                                    </li>\\n                                    <li zll_act="60"><a href="#">\\xe6\\xaf\\x8f1\\xe5\\x88\\x86\\xe9\\x92\\x9f\\xe5\\x88\\xb7\\xe6\\x96\\xb0</a>\\n                                    </li>\\n                                    <li zll_act="600"><a href="#">\\xe6\\xaf\\x8f10\\xe5\\x88\\x86\\xe9\\x92\\x9f\\xe5\\x88\\xb7\\xe6\\x96\\xb0</a>\\n                                    </li>\\n                                </ul>\\n                                <a class="close-link">\\n                                    <i class="fa fa-times"></i>\\n                                </a>\\n                            </div>\\n                        </div>\\n                        <div class="ibox-content  ">\\n\\n                            <div class="row">\\n                                <div class="col-lg-6">\\n                                    <div class="panel panel-default">\\n                                        <div class="panel-heading">\\n                                            <h3><strong>\\xe5\\x86\\x85\\xe7\\xbd\\x91\\xe6\\x9c\\xba</strong>\\n                                                <small> \\xe5\\xbc\\x80\\xe6\\x9c\\xba\\xe6\\x97\\xb6\\xe9\\x95\\xbf <span id="ia_uptime">0</span></small>\\n                                            </h3>\\n                                        </div>\\n                                        <div class="panel-body ">\\n\\n\\n                                            <div id="ia">\\n                                                <div>\\n                                                    <span>CPU</span>\\n                                                    <small class="pull-right use_cpu">0%</small>\\n                                                </div>\\n                                                <div class="progress progress-small">\\n                                                    <div style="width: 0%;" class="progress-bar use_cpu_bar"></div>\\n                                                </div>\\n\\n                                                <div>\\n                                                    <span>\\xe5\\x86\\x85\\xe5\\xad\\x98</span>\\n                                                    <small class="pull-right use_mem">0%</small>\\n                                                </div>\\n                                                <div class="progress progress-small">\\n                                                    <div style="width: 0%;" class="progress-bar use_mem_bar"></div>\\n                                                </div>\\n\\n                                                <div>\\n                                                    <span>\\xe7\\xa3\\x81\\xe7\\x9b\\x98</span>\\n                                                    <small class="pull-right use_disk">0%</small>\\n                                                </div>\\n                                                <div class="progress progress-small">\\n                                                    <div style="width: 0%;"\\n                                                         class="progress-bar progress-bar-danger use_disk_bar"></div>\\n                                                </div>\\n                                            </div>\\n\\n                                        </div>\\n                                    </div>\\n\\n                                </div>\\n                                <div class="col-lg-6">\\n                                    <div class="panel panel-default">\\n                                        <div class="panel-heading">\\n                                            <h3><strong>\\xe5\\xa4\\x96\\xe7\\xbd\\x91\\xe6\\x9c\\xba</strong>\\n                                                <small> \\xe5\\xbc\\x80\\xe6\\x9c\\xba\\xe6\\x97\\xb6\\xe9\\x95\\xbf <span id="oa_uptime">0</span></small>\\n                                            </h3>\\n                                        </div>\\n                                        <div class="panel-body ">\\n\\n\\n                                            <div id="oa">\\n                                                <div>\\n                                                    <span>CPU</span>\\n                                                    <small class="pull-right use_cpu">0%</small>\\n                                                </div>\\n                                                <div class="progress progress-small">\\n                                                    <div style="width: 0%;" class="progress-bar use_cpu_bar"></div>\\n                                                </div>\\n\\n                                                <div>\\n                                                    <span>\\xe5\\x86\\x85\\xe5\\xad\\x98</span>\\n                                                    <small class="pull-right use_mem">0%</small>\\n                                                </div>\\n                                                <div class="progress progress-small">\\n                                                    <div style="width: 0%;" class="progress-bar use_mem_bar"></div>\\n                                                </div>\\n\\n                                                <div>\\n                                                    <span>\\xe7\\xa3\\x81\\xe7\\x9b\\x98</span>\\n                                                    <small class="pull-right use_disk">0%</small>\\n                                                </div>\\n                                                <div class="progress progress-small">\\n                                                    <div style="width: 0%;"\\n                                                         class="progress-bar progress-bar-danger use_disk_bar"></div>\\n                                                </div>\\n                                            </div>\\n\\n                                        </div>\\n                                    </div>\\n                                </div>\\n                            </div>\\n\\n                        </div>\\n                    </div>\\n                </div>\\n\\n            </div>\\n            <div class="row ia">\\n                <div class="col-lg-12">\\n                    <div class="ibox float-e-margins">\\n                        <div class="ibox-title">\\n                            <h5 id="inside">\\xe5\\x86\\x85\\xe9\\x83\\xa8\\xe4\\xb8\\xbb\\xe6\\x9c\\xba\\n                                <span class="label  pull-right status"></span>\\n                            </h5>\\n\\n                            <div class="ibox-tools">\\n                                <a class="collapse-link">\\n                                    <i class="fa fa-chevron-up"></i>\\n                                </a>\\n\\n\\n                            </div>\\n                        </div>\\n\\n                        <div class="ibox-content">\\n                            <form class="form-horizontal m-t-md" action="#">\\n                                <div class="form-group ">\\n\\n                                    <div class="row ">\\n                                        <div class="col-xs-10 col-lg-offset-1 address">\\n                                            <div class="panel panel-default">\\n                                                <div class="panel-heading">\\xe8\\xb7\\xaf\\xe7\\x94\\xb1\\xe5\\x92\\x8c\\xe9\\xbb\\x98\\xe8\\xae\\xa4\\xe7\\xbd\\x91\\xe5\\x85\\xb3\\n                                                    <button class="btn btn-primary   router-add" type="button"><i\\n                                                            class="fa fa-plus"></i> \\xe6\\xb7\\xbb\\xe5\\x8a\\xa0\\xe8\\xb7\\xaf\\xe7\\x94\\xb1\\n                                                    </button>\\n                                                </div>\\n                                                <div class="panel-body ">\\n\\n\\n                                                    <table class="table table-striped  table-condensed ">\\n                                                        <tbody class="router">\\n                                                        <tr>\\n                                                            <td>\\xe9\\xbb\\x98\\xe8\\xae\\xa4\\xe7\\xbd\\x91\\xe5\\x85\\xb3\\n                                                            </td>\\n                                                            <td><input type="text"\\n                                                                       class="form-control defaultgateway"\\n                                                                       zll-type="ipv4" maxlength="15"\\n                                                                       placeholder="IP\\xe5\\x9c\\xb0\\xe5\\x9d\\x80">\\n                                                            </td>\\n\\n                                                            <td></td>\\n                                                            <td></td>\\n                                                            <td></td>\\n                                                            <td></td>\\n                                                            <td></td>\\n                                                        </tr>\\n\\n\\n                                                        </tbody>\\n                                                    </table>\\n\\n                                                </div>\\n                                            </div>\\n\\n\\n                                        </div>\\n                                    </div>\\n\\n                                </div>\\n\\n                            </form>\\n                        </div>\\n                    </div>\\n                </div>\\n\\n            </div>\\n            <div class="row oa">\\n                <div class="col-lg-12">\\n                    <div class="ibox float-e-margins">\\n                        <div class="ibox-title">\\n                            <h5 id="outside">\\xe5\\xa4\\x96\\xe9\\x83\\xa8\\xe4\\xb8\\xbb\\xe6\\x9c\\xba\\n                                <span class="label  pull-right status"></span>\\n                            </h5>\\n\\n                            <div class="ibox-tools">\\n                                <a class="collapse-link">\\n                                    <i class="fa fa-chevron-up"></i>\\n                                </a>\\n\\n\\n                            </div>\\n                        </div>\\n\\n                        <div class="ibox-content">\\n                            <form class="form-horizontal m-t-md" action="#">\\n                                <div class="form-group ">\\n\\n                                    <div class="row ">\\n                                        <div class="col-xs-10 col-lg-offset-1 address">\\n                                            <div class="panel panel-default">\\n                                                <div class="panel-heading">\\xe8\\xb7\\xaf\\xe7\\x94\\xb1\\xe5\\x92\\x8c\\xe9\\xbb\\x98\\xe8\\xae\\xa4\\xe7\\xbd\\x91\\xe5\\x85\\xb3\\n                                                    <button class="btn btn-primary   router-add" type="button"><i\\n                                                            class="fa fa-plus"></i> \\xe6\\xb7\\xbb\\xe5\\x8a\\xa0\\xe8\\xb7\\xaf\\xe7\\x94\\xb1\\n                                                    </button>\\n                                                </div>\\n                                                <div class="panel-body ">\\n\\n\\n                                                    <table class="table table-striped  table-condensed ">\\n                                                        <tbody class="router">\\n                                                        <tr>\\n                                                            <td>\\xe9\\xbb\\x98\\xe8\\xae\\xa4\\xe7\\xbd\\x91\\xe5\\x85\\xb3\\n                                                            </td>\\n                                                            <td><input type="text"\\n                                                                       class="form-control defaultgateway"\\n                                                                       zll-type="ipv4" maxlength="15"\\n                                                                       placeholder="IP\\xe5\\x9c\\xb0\\xe5\\x9d\\x80">\\n                                                            </td>\\n                                                            <td></td>\\n                                                            <td></td>\\n                                                            <td></td>\\n                                                            <td></td>\\n                                                            <td></td>\\n                                                        </tr>\\n                                                        </tbody>\\n                                                    </table>\\n                                                </div>\\n                                            </div>\\n                                        </div>\\n                                    </div>\\n                                </div>\\n                            </form>\\n                        </div>\\n                    </div>\\n                </div>\\n            </div>\\n        </div>\\n        <div class="row OUT_TCP" zll_status="0">\\n            <div class="col-lg-12">\\n                <div class="ibox float-e-margins">\\n                    <div class="ibox-title">\\n                        <h5 id="tcpinside">\\xe5\\x87\\x86\\xe5\\x87\\xba - TCP\\xe6\\x8e\\x88\\xe4\\xbf\\xa1\\xe8\\xae\\xbf\\xe9\\x97\\xae\\n                            <span class="label  pull-right status"></span>\\n                        </h5>\\n\\n                        <div class="ibox-tools">\\n                            <button class="collapse-link">\\n                                <i class="fa fa-chevron-up"></i>\\n                            </button>\\n                            <button title="\\xe5\\x90\\xaf\\xe7\\x94\\xa8" href="#" class=" startorstop">\\n                                <i class="fa fa-play"></i>\\n                            </button>\\n\\n                            <button title="\\xe5\\x81\\x9c\\xe7\\x94\\xa8" href="#" class=" startorstop">\\n                                <i class="fa fa-stop "></i>\\n                            </button>\\n\\n\\n                        </div>\\n                    </div>\\n\\n                    <div class="ibox-content">\\n                        <form class="form-horizontal m-t-md" action="#">\\n                            <div class="form-group ">\\n                                <div class="row ">\\n                                    <div class="col-xs-10 col-lg-offset-1 ">\\n                                        <div class="panel panel-default">\\n                                            <div class="panel-heading">\\xe7\\xad\\x96\\xe7\\x95\\xa5\\xe8\\xae\\xbe\\xe7\\xbd\\xae\\n                                                <button class="btn btn-primary   gapline-add" type="button"><i\\n                                                        class="fa fa-plus"></i> \\xe6\\xb7\\xbb\\xe5\\x8a\\xa0\\xe7\\xad\\x96\\xe7\\x95\\xa5\\n                                                </button>\\n                                            </div>\\n                                            <div class="panel-body ">\\n                                                <table class="table  table-striped  table-condensed tcpinside">\\n                                                    <tr>\\n                                                        <td></td>\\n                                                        <td>\\xe5\\x90\\x8d\\xe7\\xa7\\xb0</td>\\n                                                        <td>\\xe4\\xbb\\xa3\\xe7\\x90\\x86\\xe5\\x9c\\xb0\\xe5\\x9d\\x80</td>\\n                                                        <td>\\xe7\\xab\\xaf\\xe5\\x8f\\xa3</td>\\n                                                        <td>\\xe7\\x9b\\xae\\xe6\\xa0\\x87\\xe5\\x9c\\xb0\\xe5\\x9d\\x80</td>\\n                                                        <td>\\xe7\\xab\\xaf\\xe5\\x8f\\xa3</td>\\n                                                        <td></td>\\n                                                    </tr>\\n                                                </table>\\n                                            </div>\\n                                        </div>\\n                                    </div>\\n                                </div>\\n                            </div>\\n                        </form>\\n                    </div>\\n                </div>\\n            </div>\\n\\n        </div>\\n        <div class="row OUT_FTP">\\n            <div class="col-lg-12">\\n                <div class="ibox float-e-margins">\\n                    <div class="ibox-title">\\n                        <h5 id="ftpinside">\\xe5\\x87\\x86\\xe5\\x87\\xba - FTP\\xe6\\x8e\\x88\\xe4\\xbf\\xa1\\xe8\\xae\\xbf\\xe9\\x97\\xae\\n                            <span class="label  pull-right status"></span>\\n                        </h5>\\n\\n                        <div class="ibox-tools">\\n                            <button class="collapse-link">\\n                                <i class="fa fa-chevron-up"></i>\\n                            </button>\\n                            <button title="\\xe5\\x90\\xaf\\xe7\\x94\\xa8" href="#" class=" startorstop">\\n                                <i class="fa fa-play"></i>\\n                            </button>\\n\\n                            <button title="\\xe5\\x81\\x9c\\xe7\\x94\\xa8" href="#" class=" startorstop">\\n                                <i class="fa fa-stop "></i>\\n                            </button>\\n\\n\\n                        </div>\\n                    </div>\\n\\n                    <div class="ibox-content">\\n                        <form class="form-horizontal m-t-md" action="#">\\n                            <div class="form-group ">\\n                                <div class="row ">\\n                                    <div class="col-xs-10 col-lg-offset-1 ">\\n                                        <div class="panel panel-default">\\n                                            <div class="panel-heading">\\xe7\\xad\\x96\\xe7\\x95\\xa5\\xe8\\xae\\xbe\\xe7\\xbd\\xae\\n                                                <button class="btn btn-primary   gapline-add" type="button"><i\\n                                                        class="fa fa-plus"></i> \\xe6\\xb7\\xbb\\xe5\\x8a\\xa0\\xe7\\xad\\x96\\xe7\\x95\\xa5\\n                                                </button>\\n                                            </div>\\n                                            <div class="panel-body ">\\n                                                <table class="table  table-striped  table-condensed tcpinside">\\n                                                    <tr>\\n                                                        <td></td>\\n                                                        <td>\\xe5\\x90\\x8d\\xe7\\xa7\\xb0</td>\\n                                                        <td>\\xe4\\xbb\\xa3\\xe7\\x90\\x86\\xe5\\x9c\\xb0\\xe5\\x9d\\x80</td>\\n                                                        <td>\\xe7\\xab\\xaf\\xe5\\x8f\\xa3</td>\\n                                                        <td>\\xe7\\x9b\\xae\\xe6\\xa0\\x87\\xe5\\x9c\\xb0\\xe5\\x9d\\x80</td>\\n                                                        <td>\\xe7\\xab\\xaf\\xe5\\x8f\\xa3</td>\\n                                                        <td></td>\\n                                                    </tr>\\n                                                </table>\\n                                            </div>\\n                                        </div>\\n                                    </div>\\n                                </div>\\n                            </div>\\n                        </form>\\n                    </div>\\n                </div>\\n            </div>\\n\\n        </div>\\n        <div class="row OUT_ORA">\\n            <div class="col-lg-12">\\n                <div class="ibox float-e-margins">\\n                    <div class="ibox-title">\\n                        <h5 id="orainside">\\xe5\\x87\\x86\\xe5\\x87\\xba - ORACLE\\xe7\\x89\\xb9\\xe5\\x88\\xab\\xe6\\x8e\\x88\\xe4\\xbf\\xa1\\xe8\\xae\\xbf\\xe9\\x97\\xae\\n                            <span class="label  pull-right status"></span>\\n                        </h5>\\n\\n                        <div class="ibox-tools">\\n                            <button class="collapse-link">\\n                                <i class="fa fa-chevron-up"></i>\\n                            </button>\\n                            <button title="\\xe5\\x90\\xaf\\xe7\\x94\\xa8" href="#" class=" startorstop">\\n                                <i class="fa fa-play"></i>\\n                            </button>\\n\\n                            <button title="\\xe5\\x81\\x9c\\xe7\\x94\\xa8" href="#" class=" startorstop">\\n                                <i class="fa fa-stop "></i>\\n                            </button>\\n\\n\\n                        </div>\\n                    </div>\\n\\n                    <div class="ibox-content">\\n                        <form class="form-horizontal m-t-md" action="#">\\n                            <div class="form-group ">\\n                                <div class="row ">\\n                                    <div class="col-xs-10 col-lg-offset-1 ">\\n                                        <div class="panel panel-default">\\n                                            <div class="panel-heading">\\xe7\\xad\\x96\\xe7\\x95\\xa5\\xe8\\xae\\xbe\\xe7\\xbd\\xae\\n                                                <button class="btn btn-primary   gapline-add" type="button"><i\\n                                                        class="fa fa-plus"></i> \\xe6\\xb7\\xbb\\xe5\\x8a\\xa0\\xe7\\xad\\x96\\xe7\\x95\\xa5\\n                                                </button>\\n                                            </div>\\n                                            <div class="panel-body ">\\n                                                <table class="table  table-striped  table-condensed tcpinside">\\n                                                    <tr>\\n                                                        <td></td>\\n                                                        <td>\\xe5\\x90\\x8d\\xe7\\xa7\\xb0</td>\\n                                                        <td>\\xe4\\xbb\\xa3\\xe7\\x90\\x86\\xe5\\x9c\\xb0\\xe5\\x9d\\x80</td>\\n                                                        <td>\\xe7\\xab\\xaf\\xe5\\x8f\\xa3</td>\\n                                                        <td>\\xe7\\x9b\\xae\\xe6\\xa0\\x87\\xe5\\x9c\\xb0\\xe5\\x9d\\x80</td>\\n                                                        <td>\\xe7\\xab\\xaf\\xe5\\x8f\\xa3</td>\\n                                                        <td></td>\\n                                                    </tr>\\n                                                </table>\\n                                            </div>\\n                                        </div>\\n                                    </div>\\n                                </div>\\n                            </div>\\n                        </form>\\n                    </div>\\n                </div>\\n            </div>\\n\\n        </div>\\n        <div class="row OUT_UDP">\\n            <div class="col-lg-12">\\n                <div class="ibox float-e-margins">\\n                    <div class="ibox-title">\\n                        <h5 id="udpinside">\\xe5\\x87\\x86\\xe5\\x87\\xba - UDP\\xe6\\x8e\\x88\\xe4\\xbf\\xa1\\xe8\\xae\\xbf\\xe9\\x97\\xae\\n                            <span class="label  pull-right status"></span>\\n                        </h5>\\n\\n                        <div class="ibox-tools">\\n                            <button class="collapse-link">\\n                                <i class="fa fa-chevron-up"></i>\\n                            </button>\\n                            <button title="\\xe5\\x90\\xaf\\xe7\\x94\\xa8" href="#" class=" startorstop">\\n                                <i class="fa fa-play"></i>\\n                            </button>\\n\\n                            <button title="\\xe5\\x81\\x9c\\xe7\\x94\\xa8" href="#" class=" startorstop">\\n                                <i class="fa fa-stop "></i>\\n                            </button>\\n\\n\\n                        </div>\\n                    </div>\\n\\n                    <div class="ibox-content">\\n                        <form class="form-horizontal m-t-md" action="#">\\n                            <div class="form-group ">\\n                                <div class="row ">\\n                                    <div class="col-xs-10 col-lg-offset-1 ">\\n                                        <div class="panel panel-default">\\n                                            <div class="panel-heading">\\xe7\\xad\\x96\\xe7\\x95\\xa5\\xe8\\xae\\xbe\\xe7\\xbd\\xae\\n                                                <button class="btn btn-primary   gapline-add" type="button"><i\\n                                                        class="fa fa-plus"></i> \\xe6\\xb7\\xbb\\xe5\\x8a\\xa0\\xe7\\xad\\x96\\xe7\\x95\\xa5\\n                                                </button>\\n                                            </div>\\n                                            <div class="panel-body ">\\n                                                <table class="table  table-striped  table-condensed tcpinside">\\n                                                    <tr>\\n                                                        <td></td>\\n                                                        <td>\\xe5\\x90\\x8d\\xe7\\xa7\\xb0</td>\\n                                                        <td>\\xe4\\xbb\\xa3\\xe7\\x90\\x86\\xe5\\x9c\\xb0\\xe5\\x9d\\x80</td>\\n                                                        <td>\\xe7\\xab\\xaf\\xe5\\x8f\\xa3</td>\\n                                                        <td>\\xe7\\x9b\\xae\\xe6\\xa0\\x87\\xe5\\x9c\\xb0\\xe5\\x9d\\x80</td>\\n                                                        <td>\\xe7\\xab\\xaf\\xe5\\x8f\\xa3</td>\\n                                                        <td></td>\\n                                                    </tr>\\n                                                </table>\\n                                            </div>\\n                                        </div>\\n                                    </div>\\n                                </div>\\n                            </div>\\n                        </form>\\n                    </div>\\n                </div>\\n            </div>\\n\\n        </div>\\n        <div class="row IN_TCP">\\n            <div class="col-lg-12">\\n                <div class="ibox float-e-margins">\\n                    <div class="ibox-title">\\n                        <h5 id="tcpoutside">\\xe5\\x87\\x86\\xe5\\x85\\xa5 - TCP\\xe6\\x8e\\x88\\xe4\\xbf\\xa1\\xe8\\xae\\xbf\\xe9\\x97\\xae\\n                            <span class="label  pull-right status"></span>\\n                        </h5>\\n\\n                        <div class="ibox-tools">\\n                            <button class="collapse-link">\\n                                <i class="fa fa-chevron-up"></i>\\n                            </button>\\n                            <button title="\\xe5\\x90\\xaf\\xe7\\x94\\xa8" href="#" class=" startorstop">\\n                                <i class="fa fa-play"></i>\\n                            </button>\\n\\n                            <button title="\\xe5\\x81\\x9c\\xe7\\x94\\xa8" href="#" class=" startorstop">\\n                                <i class="fa fa-stop "></i>\\n                            </button>\\n\\n\\n                        </div>\\n                    </div>\\n\\n                    <div class="ibox-content">\\n                        <form class="form-horizontal m-t-md" action="#">\\n                            <div class="form-group ">\\n                                <div class="row ">\\n                                    <div class="col-xs-10 col-lg-offset-1 ">\\n                                        <div class="panel panel-default">\\n                                            <div class="panel-heading">\\xe7\\xad\\x96\\xe7\\x95\\xa5\\xe8\\xae\\xbe\\xe7\\xbd\\xae\\n                                                <button class="btn btn-primary   gapline-add" type="button"><i\\n                                                        class="fa fa-plus"></i> \\xe6\\xb7\\xbb\\xe5\\x8a\\xa0\\xe7\\xad\\x96\\xe7\\x95\\xa5\\n                                                </button>\\n                                            </div>\\n                                            <div class="panel-body ">\\n                                                <table class="table  table-striped  table-condensed tcpinside">\\n                                                    <tr>\\n                                                        <td></td>\\n                                                        <td>\\xe5\\x90\\x8d\\xe7\\xa7\\xb0</td>\\n                                                        <td>\\xe4\\xbb\\xa3\\xe7\\x90\\x86\\xe5\\x9c\\xb0\\xe5\\x9d\\x80</td>\\n                                                        <td>\\xe7\\xab\\xaf\\xe5\\x8f\\xa3</td>\\n                                                        <td>\\xe7\\x9b\\xae\\xe6\\xa0\\x87\\xe5\\x9c\\xb0\\xe5\\x9d\\x80</td>\\n                                                        <td>\\xe7\\xab\\xaf\\xe5\\x8f\\xa3</td>\\n                                                        <td></td>\\n                                                    </tr>\\n                                                </table>\\n                                            </div>\\n                                        </div>\\n                                    </div>\\n                                </div>\\n                            </div>\\n                        </form>\\n                    </div>\\n                </div>\\n            </div>\\n\\n        </div>\\n        <div class="row IN_FTP">\\n            <div class="col-lg-12">\\n                <div class="ibox float-e-margins">\\n                    <div class="ibox-title">\\n                        <h5 id="ftpoutside">\\xe5\\x87\\x86\\xe5\\x85\\xa5 - FTP\\xe6\\x8e\\x88\\xe4\\xbf\\xa1\\xe8\\xae\\xbf\\xe9\\x97\\xae\\n                            <span class="label  pull-right status"></span>\\n                        </h5>\\n\\n                        <div class="ibox-tools">\\n                            <button class="collapse-link">\\n                                <i class="fa fa-chevron-up"></i>\\n                            </button>\\n                            <button title="\\xe5\\x90\\xaf\\xe7\\x94\\xa8" href="#" class=" startorstop">\\n                                <i class="fa fa-play"></i>\\n                            </button>\\n\\n                            <button title="\\xe5\\x81\\x9c\\xe7\\x94\\xa8" href="#" class=" startorstop">\\n                                <i class="fa fa-stop "></i>\\n                            </button>\\n\\n\\n                        </div>\\n                    </div>\\n\\n                    <div class="ibox-content">\\n                        <form class="form-horizontal m-t-md" action="#">\\n                            <div class="form-group ">\\n                                <div class="row ">\\n                                    <div class="col-xs-10 col-lg-offset-1 ">\\n                                        <div class="panel panel-default">\\n                                            <div class="panel-heading">\\xe7\\xad\\x96\\xe7\\x95\\xa5\\xe8\\xae\\xbe\\xe7\\xbd\\xae\\n                                                <button class="btn btn-primary   gapline-add" type="button"><i\\n                                                        class="fa fa-plus"></i> \\xe6\\xb7\\xbb\\xe5\\x8a\\xa0\\xe7\\xad\\x96\\xe7\\x95\\xa5\\n                                                </button>\\n                                            </div>\\n                                            <div class="panel-body ">\\n                                                <table class="table  table-striped  table-condensed tcpinside">\\n                                                    <tr>\\n                                                        <td></td>\\n                                                        <td>\\xe5\\x90\\x8d\\xe7\\xa7\\xb0</td>\\n                                                        <td>\\xe4\\xbb\\xa3\\xe7\\x90\\x86\\xe5\\x9c\\xb0\\xe5\\x9d\\x80</td>\\n                                                        <td>\\xe7\\xab\\xaf\\xe5\\x8f\\xa3</td>\\n                                                        <td>\\xe7\\x9b\\xae\\xe6\\xa0\\x87\\xe5\\x9c\\xb0\\xe5\\x9d\\x80</td>\\n                                                        <td>\\xe7\\xab\\xaf\\xe5\\x8f\\xa3</td>\\n                                                        <td></td>\\n                                                    </tr>\\n                                                </table>\\n                                            </div>\\n                                        </div>\\n                                    </div>\\n                                </div>\\n                            </div>\\n                        </form>\\n                    </div>\\n                </div>\\n            </div>\\n\\n        </div>\\n        <div class="row IN_ORA">\\n            <div class="col-lg-12">\\n                <div class="ibox float-e-margins">\\n                    <div class="ibox-title">\\n                        <h5 id="oraoutside">\\xe5\\x87\\x86\\xe5\\x85\\xa5 - ORACLE\\xe7\\x89\\xb9\\xe5\\x88\\xab\\xe6\\x8e\\x88\\xe4\\xbf\\xa1\\xe8\\xae\\xbf\\xe9\\x97\\xae\\n                            <span class="label  pull-right status"></span>\\n                        </h5>\\n\\n                        <div class="ibox-tools">\\n                            <button class="collapse-link">\\n                                <i class="fa fa-chevron-up"></i>\\n                            </button>\\n                            <button title="\\xe5\\x90\\xaf\\xe7\\x94\\xa8" href="#" class=" startorstop">\\n                                <i class="fa fa-play"></i>\\n                            </button>\\n\\n                            <button title="\\xe5\\x81\\x9c\\xe7\\x94\\xa8" href="#" class=" startorstop">\\n                                <i class="fa fa-stop "></i>\\n                            </button>\\n\\n\\n                        </div>\\n                    </div>\\n\\n                    <div class="ibox-content">\\n                        <form class="form-horizontal m-t-md" action="#">\\n                            <div class="form-group ">\\n                                <div class="row ">\\n                                    <div class="col-xs-10 col-lg-offset-1 ">\\n                                        <div class="panel panel-default">\\n                                            <div class="panel-heading">\\xe7\\xad\\x96\\xe7\\x95\\xa5\\xe8\\xae\\xbe\\xe7\\xbd\\xae\\n                                                <button class="btn btn-primary   gapline-add" type="button"><i\\n                                                        class="fa fa-plus"></i> \\xe6\\xb7\\xbb\\xe5\\x8a\\xa0\\xe7\\xad\\x96\\xe7\\x95\\xa5\\n                                                </button>\\n                                            </div>\\n                                            <div class="panel-body ">\\n                                                <table class="table  table-striped  table-condensed tcpinside">\\n                                                    <tr>\\n                                                        <td></td>\\n                                                        <td>\\xe5\\x90\\x8d\\xe7\\xa7\\xb0</td>\\n                                                        <td>\\xe4\\xbb\\xa3\\xe7\\x90\\x86\\xe5\\x9c\\xb0\\xe5\\x9d\\x80</td>\\n                                                        <td>\\xe7\\xab\\xaf\\xe5\\x8f\\xa3</td>\\n                                                        <td>\\xe7\\x9b\\xae\\xe6\\xa0\\x87\\xe5\\x9c\\xb0\\xe5\\x9d\\x80</td>\\n                                                        <td>\\xe7\\xab\\xaf\\xe5\\x8f\\xa3</td>\\n                                                        <td></td>\\n                                                    </tr>\\n                                                </table>\\n                                            </div>\\n                                        </div>\\n                                    </div>\\n                                </div>\\n                            </div>\\n                        </form>\\n                    </div>\\n                </div>\\n            </div>\\n\\n        </div>\\n        <div class="row IN_UDP">\\n            <div class="col-lg-12">\\n                <div class="ibox float-e-margins">\\n                    <div class="ibox-title">\\n                        <h5 id="udpoutside">\\xe5\\x87\\x86\\xe5\\x85\\xa5 - UDP\\xe6\\x8e\\x88\\xe4\\xbf\\xa1\\xe8\\xae\\xbf\\xe9\\x97\\xae\\n                            <span class="label  pull-right status"></span>\\n                        </h5>\\n\\n                        <div class="ibox-tools">\\n                            <button class="collapse-link">\\n                                <i class="fa fa-chevron-up"></i>\\n                            </button>\\n                            <button title="\\xe5\\x90\\xaf\\xe7\\x94\\xa8" href="#" class=" startorstop">\\n                                <i class="fa fa-play"></i>\\n                            </button>\\n\\n                            <button title="\\xe5\\x81\\x9c\\xe7\\x94\\xa8" href="#" class=" startorstop">\\n                                <i class="fa fa-stop "></i>\\n                            </button>\\n\\n\\n                        </div>\\n                    </div>\\n\\n                    <div class="ibox-content">\\n                        <form class="form-horizontal m-t-md" action="#">\\n                            <div class="form-group ">\\n                                <div class="row ">\\n                                    <div class="col-xs-10 col-lg-offset-1 ">\\n                                        <div class="panel panel-default">\\n                                            <div class="panel-heading">\\xe7\\xad\\x96\\xe7\\x95\\xa5\\xe8\\xae\\xbe\\xe7\\xbd\\xae\\n                                                <button class="btn btn-primary   gapline-add" type="button"><i\\n                                                        class="fa fa-plus"></i> \\xe6\\xb7\\xbb\\xe5\\x8a\\xa0\\xe7\\xad\\x96\\xe7\\x95\\xa5\\n                                                </button>\\n                                            </div>\\n                                            <div class="panel-body ">\\n                                                <table class="table  table-striped  table-condensed tcpinside">\\n                                                    <tr>\\n                                                        <td></td>\\n                                                        <td>\\xe5\\x90\\x8d\\xe7\\xa7\\xb0</td>\\n                                                        <td>\\xe4\\xbb\\xa3\\xe7\\x90\\x86\\xe5\\x9c\\xb0\\xe5\\x9d\\x80</td>\\n                                                        <td>\\xe7\\xab\\xaf\\xe5\\x8f\\xa3</td>\\n                                                        <td>\\xe7\\x9b\\xae\\xe6\\xa0\\x87\\xe5\\x9c\\xb0\\xe5\\x9d\\x80</td>\\n                                                        <td>\\xe7\\xab\\xaf\\xe5\\x8f\\xa3</td>\\n                                                        <td></td>\\n                                                    </tr>\\n                                                </table>\\n                                            </div>\\n                                        </div>\\n                                    </div>\\n                                </div>\\n                            </div>\\n                        </form>\\n                    </div>\\n                </div>\\n            </div>\\n\\n        </div>\\n        <div class="row oa hs" id="hotbackup">\\n            <div class="col-lg-12">\\n                <div class="ibox float-e-margins">\\n                    <div class="ibox-title">\\n                        <h5 id="udpoutside">\\xe5\\xa4\\x96\\xe9\\x83\\xa8\\xe4\\xb8\\xbb\\xe6\\x9c\\xba\\xe7\\x83\\xad\\xe5\\xa4\\x87\\xe4\\xbb\\xbd\\n                            <span class="label  pull-right status"></span>\\n                        </h5>\\n\\n                        <div class="ibox-tools">\\n                            <button class="collapse-link">\\n                                <i class="fa fa-chevron-up"></i>\\n                            </button>\\n                            <button title="\\xe5\\x90\\xaf\\xe7\\x94\\xa8" href="#" class=" startorstop">\\n                                <i class="fa fa-play"></i>\\n                            </button>\\n\\n                            <button title="\\xe5\\x81\\x9c\\xe7\\x94\\xa8" href="#" class=" startorstop">\\n                                <i class="fa fa-stop "></i>\\n                            </button>\\n\\n\\n                        </div>\\n                    </div>\\n\\n                    <div class="ibox-content">\\n                        <form class="form-horizontal m-t-md" action="#">\\n                            <div class="form-group ">\\n                                <div class="row ">\\n                                    <div class="col-xs-10 col-lg-offset-1 ">\\n                                        <div class="panel panel-default">\\n                                            <div class="panel-heading">\\xe7\\x83\\xad\\xe5\\xa4\\x87\\xe4\\xbb\\xbd\\xe8\\xae\\xbe\\xe7\\xbd\\xae\\n                                                <button class="btn btn-primary   hsline-add" type="button"><i\\n                                                        class="fa fa-plus"></i> \\xe6\\xb7\\xbb\\xe5\\x8a\\xa0\\xe8\\x99\\x9a\\xe6\\x8b\\x9fIP\\n                                                </button>\\n                                            </div>\\n                                            <div class="panel-body ">\\n                                                <table class="table  table-striped  table-condensed tcpinside text-center">\\n\\n                                                    <tr>\\n                                                        <td></td>\\n                                                        <td>IP\\xe5\\x9c\\xb0\\xe5\\x9d\\x80</td>\\n                                                        <td>\\xe5\\xad\\x90\\xe7\\xbd\\x91\\xe6\\x8e\\xa9\\xe7\\xa0\\x81</td>\\n                                                        <td>\\xe7\\xbb\\x84\\xe5\\x8f\\xb7(\\xe4\\xb8\\xbb\\xe5\\xa4\\x87\\xe6\\x9c\\xba\\xe7\\xa1\\xae\\xe4\\xbf\\x9d\\xe7\\x9b\\xb8\\xe5\\x90\\x8c)</td>\\n                                                        <td>\\xe4\\xb8\\xbb</td>\\n                                                        <td>\\xe5\\x90\\xaf\\xe7\\x94\\xa8</td>\\n                                                        <td></td>\\n                                                    </tr>\\n                                                </table>\\n                                            </div>\\n                                        </div>\\n                                    </div>\\n                                </div>\\n                            </div>\\n                        </form>\\n                    </div>\\n                </div>\\n            </div>\\n\\n        </div>\\n        <div class="row ia hs">\\n            <div class="col-lg-12">\\n                <div class="ibox float-e-margins">\\n                    <div class="ibox-title">\\n                        <h5 id="udpoutside">\\xe5\\x86\\x85\\xe9\\x83\\xa8\\xe4\\xb8\\xbb\\xe6\\x9c\\xba\\xe7\\x83\\xad\\xe5\\xa4\\x87\\xe4\\xbb\\xbd\\n                            <span class="label  pull-right status"></span>\\n                        </h5>\\n\\n                        <div class="ibox-tools">\\n                            <button class="collapse-link">\\n                                <i class="fa fa-chevron-up"></i>\\n                            </button>\\n                            <button title="\\xe5\\x90\\xaf\\xe7\\x94\\xa8" href="#" class=" startorstop">\\n                                <i class="fa fa-play"></i>\\n                            </button>\\n\\n                            <button title="\\xe5\\x81\\x9c\\xe7\\x94\\xa8" href="#" class=" startorstop">\\n                                <i class="fa fa-stop "></i>\\n                            </button>\\n\\n\\n                        </div>\\n                    </div>\\n\\n                    <div class="ibox-content">\\n                        <form class="form-horizontal m-t-md" action="#">\\n                            <div class="form-group ">\\n                                <div class="row ">\\n                                    <div class="col-xs-10 col-lg-offset-1 ">\\n                                        <div class="panel panel-default">\\n                                            <div class="panel-heading">\\xe7\\x83\\xad\\xe5\\xa4\\x87\\xe4\\xbb\\xbd\\xe8\\xae\\xbe\\xe7\\xbd\\xae\\n                                                <button class="btn btn-primary   hsline-add" type="button"><i\\n                                                        class="fa fa-plus"></i> \\xe6\\xb7\\xbb\\xe5\\x8a\\xa0\\xe8\\x99\\x9a\\xe6\\x8b\\x9fIP\\n                                                </button>\\n                                            </div>\\n                                            <div class="panel-body ">\\n                                                <table class="table  table-striped  table-condensed tcpinside text-center">\\n\\n                                                    <tr>\\n                                                        <td></td>\\n                                                        <td>IP\\xe5\\x9c\\xb0\\xe5\\x9d\\x80</td>\\n                                                        <td>\\xe5\\xad\\x90\\xe7\\xbd\\x91\\xe6\\x8e\\xa9\\xe7\\xa0\\x81</td>\\n                                                        <td>\\xe7\\xbb\\x84\\xe5\\x8f\\xb7(\\xe4\\xb8\\xbb\\xe5\\xa4\\x87\\xe6\\x9c\\xba\\xe7\\xa1\\xae\\xe4\\xbf\\x9d\\xe7\\x9b\\xb8\\xe5\\x90\\x8c)</td>\\n                                                        <td>\\xe4\\xb8\\xbb</td>\\n                                                        <td>\\xe5\\x90\\xaf\\xe7\\x94\\xa8</td>\\n                                                        <td></td>\\n                                                    </tr>\\n\\n                                                </table>\\n                                            </div>\\n                                        </div>\\n                                    </div>\\n                                </div>\\n                            </div>\\n                        </form>\\n                    </div>\\n                </div>\\n            </div>\\n\\n        </div>\\n        <div id="loginside" class="wrapper wrapper-content  animated fadeInRight">\\n            <div class="row">\\n                <div class="col-lg-12">\\n                    <div class="ibox">\\n                        <div class="ibox-title">\\n                            <h5>\\xe5\\x86\\x85\\xe7\\xbd\\x91\\xe6\\x9c\\xba\\xe6\\x97\\xa5\\xe5\\xbf\\x97\\xe6\\x9f\\xa5\\xe7\\x9c\\x8b</h5>\\n\\n                        </div>\\n                        <div class="ibox-content">\\n\\n                            <div class="m-b-lg">\\n                                <div class="m-t-md">\\n                                    <strong>\\xe6\\x89\\xbe\\xe5\\x88\\xb0 <code id="iacount">0</code>\\xe6\\x9d\\xa1 \\xe6\\x97\\xa5\\xe5\\xbf\\x97 .</strong>\\n\\n                                </div>\\n\\n                            </div>\\n\\n                            <div class="table-responsive">\\n                                <table class="table table-hover issue-tracker table-condensed table-striped">\\n                                    <tbody id="ialog">\\n\\n\\n                                    </tbody>\\n                                </table>\\n                            </div>\\n                        </div>\\n\\n                    </div>\\n                </div>\\n            </div>\\n        </div>\\n        <div id="logoutside" class="wrapper wrapper-content  animated fadeInRight">\\n            <div class="row">\\n                <div class="col-lg-12">\\n                    <div class="ibox">\\n                        <div class="ibox-title">\\n                            <h5>\\xe5\\xa4\\x96\\xe7\\xbd\\x91\\xe6\\x9c\\xba\\xe6\\x97\\xa5\\xe5\\xbf\\x97\\xe6\\x9f\\xa5\\xe7\\x9c\\x8b</h5>\\n\\n                        </div>\\n                        <div class="ibox-content">\\n\\n                            <div class="m-b-lg">\\n                                <div class="m-t-md">\\n                                    <strong>\\xe6\\x89\\xbe\\xe5\\x88\\xb0 <code id="oacount">0</code>\\xe6\\x9d\\xa1 \\xe6\\x97\\xa5\\xe5\\xbf\\x97 .</strong>\\n                                </div>\\n                            </div>\\n                            <div class="table-responsive">\\n                                <table class="table table-hover issue-tracker table-condensed table-striped">\\n                                    <tbody id="oalog">\\n\\n\\n                                    </tbody>\\n                                </table>\\n                            </div>\\n                        </div>\\n\\n                    </div>\\n                </div>\\n            </div>\\n        </div>\\n        <div id="authrule" class="wrapper wrapper-content  animated fadeInRight">\\n            <div class="row">\\n                <div class="col-lg-12">\\n                    <div class="ibox">\\n                        <div class="ibox-title">\\n                            <h5>\\xe8\\xae\\xa4\\xe8\\xaf\\x81\\xe8\\xa7\\x84\\xe5\\x88\\x99</h5>\\n\\n                        </div>\\n                        <div class="ibox-content">\\n\\n                            <div class="m-b-lg">\\n                                <div class="m-t-md">\\n                                    <strong>\\xe8\\xae\\xa4\\xe8\\xaf\\x81\\xe8\\xa7\\x84\\xe5\\x88\\x99\\xe5\\xb7\\xb2\\xe7\\xbb\\x8f\\xe5\\xbc\\x80\\xe5\\x90\\xaf</strong>\\n                                </div>\\n                            </div>\\n                            <div class="table-responsive">\\n                                <table class="table table-hover issue-tracker table-condensed table-striped">\\n                                    <tbody id="oalog">\\n\\n\\n                                    </tbody>\\n                                </table>\\n                            </div>\\n                        </div>\\n\\n                    </div>\\n                </div>\\n            </div>\\n        </div>\\n\\n        <div class="footer">\\n            <div class="pull-right">\\n                <a class="btn btn-primary" href="#top">\\xe5\\x9b\\x9e\\xe5\\x88\\xb0\\xe9\\xa1\\xb6\\xe7\\xab\\xaf</a>\\n                <button class="btn btn-primary save">\\xe4\\xbf\\x9d\\xe5\\xad\\x98</button>\\n                <button class="btn btn-warning" onclick="gap_reload()">\\xe9\\x87\\x8d\\xe5\\x90\\xaf</button>\\n                <button class="btn btn-warning" onclick="gap_stop()">\\xe5\\x85\\xb3\\xe6\\x9c\\xba</button>\\n            </div>\\n            <div class=" pull-right form-inline" style="margin:  0 5px 0 5px">\\n                <div class="form-group">\\n                    <label for="oldpass">\\xe6\\x97\\xa7\\xe5\\xaf\\x86\\xe7\\xa0\\x81 </label>\\n                    <input type="password" class="form-control" id="oldpass" placeholder="">\\n                </div>\\n                <div class="form-group">\\n                    <label for="newpass1">\\xe6\\x96\\xb0\\xe5\\xaf\\x86\\xe7\\xa0\\x81 </label>\\n                    <input type="password" class="form-control" id="newpass1"\\n                           placeholder="">\\n                </div>\\n                <div class="form-group">\\n                    <label for="newpass2">\\xe9\\x87\\x8d\\xe5\\xa4\\x8d\\xe6\\x96\\xb0\\xe5\\xaf\\x86\\xe7\\xa0\\x81 </label>\\n                    <input type="password" class="form-control" id="newpass2"\\n                           placeholder="">\\n                </div>\\n            </div>\\n            <div>\\n                <strong>\\xe7\\x89\\x88\\xe6\\x9d\\x83\\xe6\\x89\\x80\\xe6\\x9c\\x89</strong> \\xe4\\xb8\\x8a\\xe6\\xb5\\xb7\\xe4\\xb8\\xad\\xe7\\xbd\\x91\\xe7\\xbd\\x91\\xe7\\xbb\\x9c\\xe5\\xae\\x89\\xe5\\x85\\xa8\\xe6\\x8a\\x80\\xe6\\x9c\\xaf\\xe6\\x9c\\x89\\xe9\\x99\\x90\\xe5\\x85\\xac\\xe5\\x8f\\xb8 &copy; 2014-2015\\n            </div>\\n        </div>\\n    </div>\\n</div>\\n\\n\\n<!-- Mainly scripts -->\\n<script src="\', escape=False)\nresponse.write(URL(\'static\',\'js/jquery-2.1.1.js\'))\nresponse.write(\'"></script>\\n<script src="\', escape=False)\nresponse.write(URL(\'static\',\'js/bootstrap.min.js\'))\nresponse.write(\'"></script>\\n<script src="\', escape=False)\nresponse.write(URL(\'static\',\'js/plugins/metisMenu/jquery.metisMenu.js\'))\nresponse.write(\'"></script>\\n<script src="\', escape=False)\nresponse.write(URL(\'static\',\'js/plugins/slimscroll/jquery.slimscroll.min.js\'))\nresponse.write(\'"></script>\\n<script src="\', escape=False)\nresponse.write(URL(\'static\',\'js/plugins/jasny/jasny-bootstrap.min.js\'))\nresponse.write(\'"></script>\\n\\n\\n<!-- Custom and plugin javascript -->\\n<script src="\', escape=False)\nresponse.write(URL(\'static\',\'js/inspinia.js\'))\nresponse.write(\'"></script>\\n<script src="\', escape=False)\nresponse.write(URL(\'static\',\'js/plugins/pace/pace.min.js\'))\nresponse.write(\'"></script>\\n<script src="\', escape=False)\nresponse.write(URL(\'static\',\'js/jSing.min.js\'))\nresponse.write(\'"></script>\\n<script src="\', escape=False)\nresponse.write(URL(\'static\',\'js/json2.min.js\'))\nresponse.write(\'"></script>\\n\\n\\n<script src="\', escape=False)\nresponse.write(URL(\'static\',\'js/plugins/sweetalert/sweetalert.min.js\'))\nresponse.write(\'"></script>\\n\\n\\n<script src="\', escape=False)\nresponse.write(URL(\'static\',\'js/zll.js\'))\nresponse.write(\'"></script>\\n\\n</body>\\n\\n\\n</html>\', escape=False)'
p7
sS'snapshot'
p8
(dp9
S'exception'
p10
(dp11
S'__hash__'
p12
S"<method-wrapper '__hash__' of exceptions.NameError object>"
p13
sS'__setattr__'
p14
S"<method-wrapper '__setattr__' of exceptions.NameError object>"
p15
sS'__reduce_ex__'
p16
S'<built-in method __reduce_ex__ of exceptions.NameError object>'
p17
sS'__getslice__'
p18
S"<method-wrapper '__getslice__' of exceptions.NameError object>"
p19
sS'__getitem__'
p20
S"<method-wrapper '__getitem__' of exceptions.NameError object>"
p21
sS'__setstate__'
p22
S'<built-in method __setstate__ of exceptions.NameError object>'
p23
sS'args'
p24
S'("name \'username\' is not defined",)'
p25
sS'__reduce__'
p26
S'<built-in method __reduce__ of exceptions.NameError object>'
p27
sS'__str__'
p28
S"<method-wrapper '__str__' of exceptions.NameError object>"
p29
sS'__format__'
p30
S'<built-in method __format__ of exceptions.NameError object>'
p31
sS'__getattribute__'
p32
S"<method-wrapper '__getattribute__' of exceptions.NameError object>"
p33
sS'__class__'
p34
S"<type 'exceptions.NameError'>"
p35
sS'__unicode__'
p36
S'<built-in method __unicode__ of exceptions.NameError object>'
p37
sS'__delattr__'
p38
S"<method-wrapper '__delattr__' of exceptions.NameError object>"
p39
sS'__subclasshook__'
p40
S'<built-in method __subclasshook__ of type object>'
p41
sS'__repr__'
p42
S"<method-wrapper '__repr__' of exceptions.NameError object>"
p43
sS'__dict__'
p44
S'{}'
p45
sS'__sizeof__'
p46
S'<built-in method __sizeof__ of exceptions.NameError object>'
p47
sS'__doc__'
p48
S"'Name not found globally.'"
p49
sS'__init__'
p50
S"<method-wrapper '__init__' of exceptions.NameError object>"
p51
sS'__new__'
p52
S'<built-in method __new__ of type object>'
p53
ssS'evalue'
p54
S"name 'username' is not defined"
p55
sS'request'
p56
cgluon.html
XML_unpickle
p57
(S's\xc5t\x00\x00<div><table><tr><td style="font-weight:bold;vertical-align:top;">ajax</td><td style="vertical-align:top;">:</td><td><div>False</div></td></tr><tr><td style="font-weight:bold;vertical-align:top;">application</td><td style="vertical-align:top;">:</td><td><div>gap2py</div></td></tr><tr><td style="font-weight:bold;vertical-align:top;">args</td><td style="vertical-align:top;">:</td><td><div><table></table></div></td></tr><tr><td style="font-weight:bold;vertical-align:top;">cid</td><td style="vertical-align:top;">:</td><td><div>None</div></td></tr><tr><td style="font-weight:bold;vertical-align:top;">client</td><td style="vertical-align:top;">:</td><td><div>127.0.0.1</div></td></tr><tr><td style="font-weight:bold;vertical-align:top;">controller</td><td style="vertical-align:top;">:</td><td><div>index</div></td></tr><tr><td style="font-weight:bold;vertical-align:top;">cookies</td><td style="vertical-align:top;">:</td><td><div><table><tr><td style="font-weight:bold;vertical-align:top;">csrftoken</td><td style="vertical-align:top;">:</td><td><div>oUC4jOBlE7Ff3AlEbVp2SoXW70T2NdL6<table><tr><td style="font-weight:bold;vertical-align:top;">comment</td><td style="vertical-align:top;">:</td><td><div></div></td></tr><tr><td style="font-weight:bold;vertical-align:top;">domain</td><td style="vertical-align:top;">:</td><td><div></div></td></tr><tr><td style="font-weight:bold;vertical-align:top;">expires</td><td style="vertical-align:top;">:</td><td><div></div></td></tr><tr><td style="font-weight:bold;vertical-align:top;">httponly</td><td style="vertical-align:top;">:</td><td><div></div></td></tr><tr><td style="font-weight:bold;vertical-align:top;">max-age</td><td style="vertical-align:top;">:</td><td><div></div></td></tr><tr><td style="font-weight:bold;vertical-align:top;">path</td><td style="vertical-align:top;">:</td><td><div></div></td></tr><tr><td style="font-weight:bold;vertical-align:top;">secure</td><td style="vertical-align:top;">:</td><td><div></div></td></tr><tr><td style="font-weight:bold;vertical-align:top;">version</td><td style="vertical-align:top;">:</td><td><div></div></td></tr></table></div></td></tr><tr><td style="font-weight:bold;vertical-align:top;">session_id_admin</td><td style="vertical-align:top;">:</td><td><div>127.0.0.1-3eb85eab-7359-4e30-8e0e-d52380e33a95<table><tr><td style="font-weight:bold;vertical-align:top;">comment</td><td style="vertical-align:top;">:</td><td><div></div></td></tr><tr><td style="font-weight:bold;vertical-align:top;">domain</td><td style="vertical-align:top;">:</td><td><div></div></td></tr><tr><td style="font-weight:bold;vertical-align:top;">expires</td><td style="vertical-align:top;">:</td><td><div></div></td></tr><tr><td style="font-weight:bold;vertical-align:top;">httponly</td><td style="vertical-align:top;">:</td><td><div></div></td></tr><tr><td style="font-weight:bold;vertical-align:top;">max-age</td><td style="vertical-align:top;">:</td><td><div></div></td></tr><tr><td style="font-weight:bold;vertical-align:top;">path</td><td style="vertical-align:top;">:</td><td><div></div></td></tr><tr><td style="font-weight:bold;vertical-align:top;">secure</td><td style="vertical-align:top;">:</td><td><div></div></td></tr><tr><td style="font-weight:bold;vertical-align:top;">version</td><td style="vertical-align:top;">:</td><td><div></div></td></tr></table></div></td></tr><tr><td style="font-weight:bold;vertical-align:top;">session_id_first</td><td style="vertical-align:top;">:</td><td><div>127.0.0.1-54498cf6-4442-4789-bd67-72c977f0de77<table><tr><td style="font-weight:bold;vertical-align:top;">comment</td><td style="vertical-align:top;">:</td><td><div></div></td></tr><tr><td style="font-weight:bold;vertical-align:top;">domain</td><td style="vertical-align:top;">:</td><td><div></div></td></tr><tr><td style="font-weight:bold;vertical-align:top;">expires</td><td style="vertical-align:top;">:</td><td><div></div></td></tr><tr><td style="font-weight:bold;vertical-align:top;">httponly</td><td style="vertical-align:top;">:</td><td><div></div></td></tr><tr><td style="font-weight:bold;vertical-align:top;">max-age</td><td style="vertical-align:top;">:</td><td><div></div></td></tr><tr><td style="font-weight:bold;vertical-align:top;">path</td><td style="vertical-align:top;">:</td><td><div></div></td></tr><tr><td style="font-weight:bold;vertical-align:top;">secure</td><td style="vertical-align:top;">:</td><td><div></div></td></tr><tr><td style="font-weight:bold;vertical-align:top;">version</td><td style="vertical-align:top;">:</td><td><div></div></td></tr></table></div></td></tr><tr><td style="font-weight:bold;vertical-align:top;">session_id_gap2py</td><td style="vertical-align:top;">:</td><td><div>127.0.0.1-48509dd2-3543-4f07-9888-086d381b683a<table><tr><td style="font-weight:bold;vertical-align:top;">comment</td><td style="vertical-align:top;">:</td><td><div></div></td></tr><tr><td style="font-weight:bold;vertical-align:top;">domain</td><td style="vertical-align:top;">:</td><td><div></div></td></tr><tr><td style="font-weight:bold;vertical-align:top;">expires</td><td style="vertical-align:top;">:</td><td><div></div></td></tr><tr><td style="font-weight:bold;vertical-align:top;">httponly</td><td style="vertical-align:top;">:</td><td><div></div></td></tr><tr><td style="font-weight:bold;vertical-align:top;">max-age</td><td style="vertical-align:top;">:</td><td><div></div></td></tr><tr><td style="font-weight:bold;vertical-align:top;">path</td><td style="vertical-align:top;">:</td><td><div></div></td></tr><tr><td style="font-weight:bold;vertical-align:top;">secure</td><td style="vertical-align:top;">:</td><td><div></div></td></tr><tr><td style="font-weight:bold;vertical-align:top;">version</td><td style="vertical-align:top;">:</td><td><div></div></td></tr></table></div></td></tr><tr><td style="font-weight:bold;vertical-align:top;">session_id_tp</td><td style="vertical-align:top;">:</td><td><div>127.0.0.1-2d1dd9cc-f979-4fd5-ba47-fee966a6f1a3<table><tr><td style="font-weight:bold;vertical-align:top;">comment</td><td style="vertical-align:top;">:</td><td><div></div></td></tr><tr><td style="font-weight:bold;vertical-align:top;">domain</td><td style="vertical-align:top;">:</td><td><div></div></td></tr><tr><td style="font-weight:bold;vertical-align:top;">expires</td><td style="vertical-align:top;">:</td><td><div></div></td></tr><tr><td style="font-weight:bold;vertical-align:top;">httponly</td><td style="vertical-align:top;">:</td><td><div></div></td></tr><tr><td style="font-weight:bold;vertical-align:top;">max-age</td><td style="vertical-align:top;">:</td><td><div></div></td></tr><tr><td style="font-weight:bold;vertical-align:top;">path</td><td style="vertical-align:top;">:</td><td><div></div></td></tr><tr><td style="font-weight:bold;vertical-align:top;">secure</td><td style="vertical-align:top;">:</td><td><div></div></td></tr><tr><td style="font-weight:bold;vertical-align:top;">version</td><td style="vertical-align:top;">:</td><td><div></div></td></tr></table></div></td></tr><tr><td style="font-weight:bold;vertical-align:top;">session_id_welcome</td><td style="vertical-align:top;">:</td><td><div>127.0.0.1-93ec3a7c-d600-4206-97ec-f4c07750baf4<table><tr><td style="font-weight:bold;vertical-align:top;">comment</td><td style="vertical-align:top;">:</td><td><div></div></td></tr><tr><td style="font-weight:bold;vertical-align:top;">domain</td><td style="vertical-align:top;">:</td><td><div></div></td></tr><tr><td style="font-weight:bold;vertical-align:top;">expires</td><td style="vertical-align:top;">:</td><td><div></div></td></tr><tr><td style="font-weight:bold;vertical-align:top;">httponly</td><td style="vertical-align:top;">:</td><td><div></div></td></tr><tr><td style="font-weight:bold;vertical-align:top;">max-age</td><td style="vertical-align:top;">:</td><td><div></div></td></tr><tr><td style="font-weight:bold;vertical-align:top;">path</td><td style="vertical-align:top;">:</td><td><div></div></td></tr><tr><td style="font-weight:bold;vertical-align:top;">secure</td><td style="vertical-align:top;">:</td><td><div></div></td></tr><tr><td style="font-weight:bold;vertical-align:top;">version</td><td style="vertical-align:top;">:</td><td><div></div></td></tr></table></div></td></tr><tr><td style="font-weight:bold;vertical-align:top;">sessionid</td><td style="vertical-align:top;">:</td><td><div>o6nv6ki5tf8eebdsssv34sdrezmc4j70<table><tr><td style="font-weight:bold;vertical-align:top;">comment</td><td style="vertical-align:top;">:</td><td><div></div></td></tr><tr><td style="font-weight:bold;vertical-align:top;">domain</td><td style="vertical-align:top;">:</td><td><div></div></td></tr><tr><td style="font-weight:bold;vertical-align:top;">expires</td><td style="vertical-align:top;">:</td><td><div></div></td></tr><tr><td style="font-weight:bold;vertical-align:top;">httponly</td><td style="vertical-align:top;">:</td><td><div></div></td></tr><tr><td style="font-weight:bold;vertical-align:top;">max-age</td><td style="vertical-align:top;">:</td><td><div></div></td></tr><tr><td style="font-weight:bold;vertical-align:top;">path</td><td style="vertical-align:top;">:</td><td><div></div></td></tr><tr><td style="font-weight:bold;vertical-align:top;">secure</td><td style="vertical-align:top;">:</td><td><div></div></td></tr><tr><td style="font-weight:bold;vertical-align:top;">version</td><td style="vertical-align:top;">:</td><td><div></div></td></tr></table></div></td></tr></table></div></td></tr><tr><td style="font-weight:bold;vertical-align:top;">env</td><td style="vertical-align:top;">:</td><td><div><table><tr><td style="font-weight:bold;vertical-align:top;">HTTP_ACCEPT</td><td style="vertical-align:top;">:</td><td><div>text/html,application/xhtml+xml,application/xml;q=0.9,image/webp,*/*;q=0.8</div></td></tr><tr><td style="font-weight:bold;vertical-align:top;">HTTP_ACCEPT_ENCODING</td><td style="vertical-align:top;">:</td><td><div>gzip, deflate, sdch</div></td></tr><tr><td style="font-weight:bold;vertical-align:top;">HTTP_ACCEPT_LANGUAGE</td><td style="vertical-align:top;">:</td><td><div>zh-CN,zh;q=0.8</div></td></tr><tr><td style="font-weight:bold;vertical-align:top;">HTTP_CACHE_CONTROL</td><td style="vertical-align:top;">:</td><td><div>max-age=0</div></td></tr><tr><td style="font-weight:bold;vertical-align:top;">HTTP_CONNECTION</td><td style="vertical-align:top;">:</td><td><div>keep-alive</div></td></tr><tr><td style="font-weight:bold;vertical-align:top;">HTTP_COOKIE</td><td style="vertical-align:top;">:</td><td><div>session_id_first=127.0.0.1-54498cf6-4442-4789-bd67-72c977f0de77; session_id_tp=127.0.0.1-2d1dd9cc-f979-4fd5-ba47-fee966a6f1a3; sessionid=o6nv6ki5tf8eebdsssv34sdrezmc4j70; csrftoken=oUC4jOBlE7Ff3AlEbVp2SoXW70T2NdL6; session_id_welcome=127.0.0.1-93ec3a7c-d600-4206-97ec-f4c07750baf4; session_id_gap2py=127.0.0.1-48509dd2-3543-4f07-9888-086d381b683a; session_id_admin=127.0.0.1-3eb85eab-7359-4e30-8e0e-d52380e33a95</div></td></tr><tr><td style="font-weight:bold;vertical-align:top;">HTTP_HOST</td><td style="vertical-align:top;">:</td><td><div>127.0.0.1:8000</div></td></tr><tr><td style="font-weight:bold;vertical-align:top;">HTTP_REFERER</td><td style="vertical-align:top;">:</td><td><div>http://127.0.0.1:8000/admin/default/design/gap2py</div></td></tr><tr><td style="font-weight:bold;vertical-align:top;">HTTP_UPGRADE_INSECURE_REQUESTS</td><td style="vertical-align:top;">:</td><td><div>1</div></td></tr><tr><td style="font-weight:bold;vertical-align:top;">HTTP_USER_AGENT</td><td style="vertical-align:top;">:</td><td><div>Mozilla/5.0 (Macintosh; Intel Mac OS X 10_11_6) AppleWebKit/537.36 (KHTML, like Gecko) Chrome/49.0.2623.110 Safari/537.36</div></td></tr><tr><td style="font-weight:bold;vertical-align:top;">PATH_INFO</td><td style="vertical-align:top;">:</td><td><div>/gap2py/index/index</div></td></tr><tr><td style="font-weight:bold;vertical-align:top;">QUERY_STRING</td><td style="vertical-align:top;">:</td><td><div></div></td></tr><tr><td style="font-weight:bold;vertical-align:top;">REMOTE_ADDR</td><td style="vertical-align:top;">:</td><td><div>127.0.0.1</div></td></tr><tr><td style="font-weight:bold;vertical-align:top;">REMOTE_PORT</td><td style="vertical-align:top;">:</td><td><div>63883</div></td></tr><tr><td style="font-weight:bold;vertical-align:top;">REQUEST_METHOD</td><td style="vertical-align:top;">:</td><td><div>GET</div></td></tr><tr><td style="font-weight:bold;vertical-align:top;">SCRIPT_NAME</td><td style="vertical-align:top;">:</td><td><div></div></td></tr><tr><td style="font-weight:bold;vertical-align:top;">SERVER_NAME</td><td style="vertical-align:top;">:</td><td><div>zhulieliedeMacBook-Pro.local</div></td></tr><tr><td style="font-weight:bold;vertical-align:top;">SERVER_PORT</td><td style="vertical-align:top;">:</td><td><div>8000</div></td></tr><tr><td style="font-weight:bold;vertical-align:top;">SERVER_PROTOCOL</td><td style="vertical-align:top;">:</td><td><div>HTTP/1.1</div></td></tr><tr><td style="font-weight:bold;vertical-align:top;">SERVER_SOFTWARE</td><td style="vertical-align:top;">:</td><td><div>Rocket 1.2.6</div></td></tr><tr><td style="font-weight:bold;vertical-align:top;">app_folders</td><td style="vertical-align:top;">:</td><td><div>set([&#x27;/Users/zhulielie/PycharmProjects/gap2py/web2py/applications/gap2py/&#x27;, &#x27;/Users/zhulielie/PycharmProjects/gap2py/web2py/applications/admin/&#x27;, &#x27;/Users/zhulielie/PycharmProjects/gap2py/web2py/applications/examples/&#x27;, &#x27;/Users/zhulielie/PycharmProjects/gap2py/web2py/applications/welcome/&#x27;])</div></td></tr><tr><td style="font-weight:bold;vertical-align:top;">applications_parent</td><td style="vertical-align:top;">:</td><td><div>/Users/zhulielie/PycharmProjects/gap2py/web2py</div></td></tr><tr><td style="font-weight:bold;vertical-align:top;">cmd_args</td><td style="vertical-align:top;">:</td><td><div><table></table></div></td></tr><tr><td style="font-weight:bold;vertical-align:top;">cmd_options</td><td style="vertical-align:top;">:</td><td><div>&lt;Values at 0x107fe7710: {&#x27;verbose&#x27;: False, &#x27;ip&#x27;: &#x27;127.0.0.1&#x27;, &#x27;debuglevel&#x27;: 30, &#x27;with_scheduler&#x27;: False, &#x27;shutdown_timeout&#x27;: 5, &#x27;taskbar&#x27;: False, &#x27;with_coverage&#x27;: False, &#x27;pid_filename&#x27;: &#x27;httpserver.pid&#x27;, &#x27;maxthreads&#x27;: None, &#x27;softcron&#x27;: False, &#x27;server_name&#x27;: &#x27;zhulieliedeMacBook-Pro.local&#x27;, &#x27;bpython&#x27;: False, &#x27;nogui&#x27;: False, &#x27;port&#x27;: 8000, &#x27;print_errors&#x27;: False, &#x27;extcron&#x27;: False, &#x27;runcron&#x27;: False, &#x27;run_system_tests&#x27;: False, &#x27;test&#x27;: None, &#x27;folder&#x27;: &#x27;/Users/zhulielie/PycharmProjects/gap2py/web2py&#x27;, &#x27;config&#x27;: &#x27;&#x27;, &#x27;minthreads&#x27;: None, &#x27;shell&#x27;: None, &#x27;run&#x27;: &#x27;&#x27;, &#x27;log_filename&#x27;: &#x27;httpserver.log&#x27;, &#x27;profiler_dir&#x27;: None, &#x27;args&#x27;: [&#x27;&#x27;], &#x27;socket_timeout&#x27;: 5, &#x27;ssl_ca_certificate&#x27;: None, &#x27;scheduler&#x27;: None, &#x27;interfaces&#x27;: None, &#x27;ssl_private_key&#x27;: &#x27;&#x27;, &#x27;gae&#x27;: None, &#x27;password&#x27;: &#x27;******&#x27;, &#x27;request_queue_size&#x27;: 5, &#x27;ssl_certificate&#x27;: &#x27;&#x27;, &#x27;cronjob&#x27;: False, &#x27;numthreads&#x27;: None, &#x27;quiet&#x27;: False, &#x27;import_models&#x27;: False, &#x27;timeout&#x27;: 10, &#x27;plain&#x27;: False, &#x27;nobanner&#x27;: False}&gt;</div></td></tr><tr><td style="font-weight:bold;vertical-align:top;">db_sessions</td><td style="vertical-align:top;">:</td><td><div>set([])</div></td></tr><tr><td style="font-weight:bold;vertical-align:top;">debugging</td><td style="vertical-align:top;">:</td><td><div>True</div></td></tr><tr><td style="font-weight:bold;vertical-align:top;">gluon_parent</td><td style="vertical-align:top;">:</td><td><div>/Users/zhulielie/PycharmProjects/gap2py/web2py</div></td></tr><tr><td style="font-weight:bold;vertical-align:top;">http_accept</td><td style="vertical-align:top;">:</td><td><div>text/html,application/xhtml+xml,application/xml;q=0.9,image/webp,*/*;q=0.8</div></td></tr><tr><td style="font-weight:bold;vertical-align:top;">http_accept_encoding</td><td style="vertical-align:top;">:</td><td><div>gzip, deflate, sdch</div></td></tr><tr><td style="font-weight:bold;vertical-align:top;">http_accept_language</td><td style="vertical-align:top;">:</td><td><div>zh-CN,zh;q=0.8</div></td></tr><tr><td style="font-weight:bold;vertical-align:top;">http_cache_control</td><td style="vertical-align:top;">:</td><td><div>max-age=0</div></td></tr><tr><td style="font-weight:bold;vertical-align:top;">http_connection</td><td style="vertical-align:top;">:</td><td><div>keep-alive</div></td></tr><tr><td style="font-weight:bold;vertical-align:top;">http_cookie</td><td style="vertical-align:top;">:</td><td><div>session_id_first=127.0.0.1-54498cf6-4442-4789-bd67-72c977f0de77; session_id_tp=127.0.0.1-2d1dd9cc-f979-4fd5-ba47-fee966a6f1a3; sessionid=o6nv6ki5tf8eebdsssv34sdrezmc4j70; csrftoken=oUC4jOBlE7Ff3AlEbVp2SoXW70T2NdL6; session_id_welcome=127.0.0.1-93ec3a7c-d600-4206-97ec-f4c07750baf4; session_id_gap2py=127.0.0.1-48509dd2-3543-4f07-9888-086d381b683a; session_id_admin=127.0.0.1-3eb85eab-7359-4e30-8e0e-d52380e33a95</div></td></tr><tr><td style="font-weight:bold;vertical-align:top;">http_host</td><td style="vertical-align:top;">:</td><td><div>127.0.0.1:8000</div></td></tr><tr><td style="font-weight:bold;vertical-align:top;">http_referer</td><td style="vertical-align:top;">:</td><td><div>http://127.0.0.1:8000/admin/default/design/gap2py</div></td></tr><tr><td style="font-weight:bold;vertical-align:top;">http_upgrade_insecure_requests</td><td style="vertical-align:top;">:</td><td><div>1</div></td></tr><tr><td style="font-weight:bold;vertical-align:top;">http_user_agent</td><td style="vertical-align:top;">:</td><td><div>Mozilla/5.0 (Macintosh; Intel Mac OS X 10_11_6) AppleWebKit/537.36 (KHTML, like Gecko) Chrome/49.0.2623.110 Safari/537.36</div></td></tr><tr><td style="font-weight:bold;vertical-align:top;">is_jython</td><td style="vertical-align:top;">:</td><td><div>False</div></td></tr><tr><td style="font-weight:bold;vertical-align:top;">is_pypy</td><td style="vertical-align:top;">:</td><td><div>False</div></td></tr><tr><td style="font-weight:bold;vertical-align:top;">is_source</td><td style="vertical-align:top;">:</td><td><div>True</div></td></tr><tr><td style="font-weight:bold;vertical-align:top;">local_hosts</td><td style="vertical-align:top;">:</td><td><div><table><tr><td><div>10.211.55.2</div></td></tr><tr><td><div>fe80::aebc:32ff:fe91:4749%en0</div></td></tr><tr><td><div>10.37.129.2</div></td></tr><tr><td><div>zhulieliedemacbook-pro.local</div></td></tr><tr><td><div>::1</div></td></tr><tr><td><div>::ffff:127.0.0.1</div></td></tr><tr><td><div>zhulieliedeMacBook-Pro.local</div></td></tr><tr><td><div>192.168.1.196</div></td></tr><tr><td><div>127.0.0.1</div></td></tr></table></div></td></tr><tr><td style="font-weight:bold;vertical-align:top;">path_info</td><td style="vertical-align:top;">:</td><td><div>/gap2py/index/index</div></td></tr><tr><td style="font-weight:bold;vertical-align:top;">query_string</td><td style="vertical-align:top;">:</td><td><div></div></td></tr><tr><td style="font-weight:bold;vertical-align:top;">remote_addr</td><td style="vertical-align:top;">:</td><td><div>127.0.0.1</div></td></tr><tr><td style="font-weight:bold;vertical-align:top;">remote_port</td><td style="vertical-align:top;">:</td><td><div>63883</div></td></tr><tr><td style="font-weight:bold;vertical-align:top;">request_method</td><td style="vertical-align:top;">:</td><td><div>GET</div></td></tr><tr><td style="font-weight:bold;vertical-align:top;">request_uri</td><td style="vertical-align:top;">:</td><td><div>/gap2py/index/index</div></td></tr><tr><td style="font-weight:bold;vertical-align:top;">script_name</td><td style="vertical-align:top;">:</td><td><div></div></td></tr><tr><td style="font-weight:bold;vertical-align:top;">server_name</td><td style="vertical-align:top;">:</td><td><div>zhulieliedeMacBook-Pro.local</div></td></tr><tr><td style="font-weight:bold;vertical-align:top;">server_port</td><td style="vertical-align:top;">:</td><td><div>8000</div></td></tr><tr><td style="font-weight:bold;vertical-align:top;">server_protocol</td><td style="vertical-align:top;">:</td><td><div>HTTP/1.1</div></td></tr><tr><td style="font-weight:bold;vertical-align:top;">server_software</td><td style="vertical-align:top;">:</td><td><div>Rocket 1.2.6</div></td></tr><tr><td style="font-weight:bold;vertical-align:top;">web2py_path</td><td style="vertical-align:top;">:</td><td><div>/Users/zhulielie/PycharmProjects/gap2py/web2py</div></td></tr><tr><td style="font-weight:bold;vertical-align:top;">web2py_version</td><td style="vertical-align:top;">:</td><td><div>2.14.6-stable+timestamp.2016.05.10.00.21.47</div></td></tr><tr><td style="font-weight:bold;vertical-align:top;">wsgi.errors</td><td style="vertical-align:top;">:</td><td><div>&lt;open file &#x27;&lt;stderr&gt;&#x27;, mode &#x27;w&#x27; at 0x106ef91e0&gt;</div></td></tr><tr><td style="font-weight:bold;vertical-align:top;">wsgi.file_wrapper</td><td style="vertical-align:top;">:</td><td><div>&lt;class wsgiref.util.FileWrapper at 0x10829a7a0&gt;</div></td></tr><tr><td style="font-weight:bold;vertical-align:top;">wsgi.input</td><td style="vertical-align:top;">:</td><td><div>&lt;socket._fileobject object at 0x11327c9d0&gt;</div></td></tr><tr><td style="font-weight:bold;vertical-align:top;">wsgi.multiprocess</td><td style="vertical-align:top;">:</td><td><div>False</div></td></tr><tr><td style="font-weight:bold;vertical-align:top;">wsgi.multithread</td><td style="vertical-align:top;">:</td><td><div>True</div></td></tr><tr><td style="font-weight:bold;vertical-align:top;">wsgi.run_once</td><td style="vertical-align:top;">:</td><td><div>False</div></td></tr><tr><td style="font-weight:bold;vertical-align:top;">wsgi.url_scheme</td><td style="vertical-align:top;">:</td><td><div>http</div></td></tr><tr><td style="font-weight:bold;vertical-align:top;">wsgi.version</td><td style="vertical-align:top;">:</td><td><div><table><tr><td><div>1</div></td></tr><tr><td><div>0</div></td></tr></table></div></td></tr><tr><td style="font-weight:bold;vertical-align:top;">wsgi_errors</td><td style="vertical-align:top;">:</td><td><div>&lt;open file &#x27;&lt;stderr&gt;&#x27;, mode &#x27;w&#x27; at 0x106ef91e0&gt;</div></td></tr><tr><td style="font-weight:bold;vertical-align:top;">wsgi_file_wrapper</td><td style="vertical-align:top;">:</td><td><div>&lt;class wsgiref.util.FileWrapper at 0x10829a7a0&gt;</div></td></tr><tr><td style="font-weight:bold;vertical-align:top;">wsgi_input</td><td style="vertical-align:top;">:</td><td><div>&lt;socket._fileobject object at 0x11327c9d0&gt;</div></td></tr><tr><td style="font-weight:bold;vertical-align:top;">wsgi_multiprocess</td><td style="vertical-align:top;">:</td><td><div>False</div></td></tr><tr><td style="font-weight:bold;vertical-align:top;">wsgi_multithread</td><td style="vertical-align:top;">:</td><td><div>True</div></td></tr><tr><td style="font-weight:bold;vertical-align:top;">wsgi_run_once</td><td style="vertical-align:top;">:</td><td><div>False</div></td></tr><tr><td style="font-weight:bold;vertical-align:top;">wsgi_url_scheme</td><td style="vertical-align:top;">:</td><td><div>http</div></td></tr><tr><td style="font-weight:bold;vertical-align:top;">wsgi_version</td><td style="vertical-align:top;">:</td><td><div><table><tr><td><div>1</div></td></tr><tr><td><div>0</div></td></tr></table></div></td></tr></table></div></td></tr><tr><td style="font-weight:bold;vertical-align:top;">extension</td><td style="vertical-align:top;">:</td><td><div>html</div></td></tr><tr><td style="font-weight:bold;vertical-align:top;">folder</td><td style="vertical-align:top;">:</td><td><div>/Users/zhulielie/PycharmProjects/gap2py/web2py/applications/gap2py/</div></td></tr><tr><td style="font-weight:bold;vertical-align:top;">function</td><td style="vertical-align:top;">:</td><td><div>index</div></td></tr><tr><td style="font-weight:bold;vertical-align:top;">global_settings</td><td style="vertical-align:top;">:</td><td><div><table><tr><td style="font-weight:bold;vertical-align:top;">app_folders</td><td style="vertical-align:top;">:</td><td><div>set([&#x27;/Users/zhulielie/PycharmProjects/gap2py/web2py/applications/gap2py/&#x27;, &#x27;/Users/zhulielie/PycharmProjects/gap2py/web2py/applications/admin/&#x27;, &#x27;/Users/zhulielie/PycharmProjects/gap2py/web2py/applications/examples/&#x27;, &#x27;/Users/zhulielie/PycharmProjects/gap2py/web2py/applications/welcome/&#x27;])</div></td></tr><tr><td style="font-weight:bold;vertical-align:top;">applications_parent</td><td style="vertical-align:top;">:</td><td><div>/Users/zhulielie/PycharmProjects/gap2py/web2py</div></td></tr><tr><td style="font-weight:bold;vertical-align:top;">cmd_args</td><td style="vertical-align:top;">:</td><td><div><table></table></div></td></tr><tr><td style="font-weight:bold;vertical-align:top;">cmd_options</td><td style="vertical-align:top;">:</td><td><div>&lt;Values at 0x107fe7710: {&#x27;verbose&#x27;: False, &#x27;ip&#x27;: &#x27;127.0.0.1&#x27;, &#x27;debuglevel&#x27;: 30, &#x27;with_scheduler&#x27;: False, &#x27;shutdown_timeout&#x27;: 5, &#x27;taskbar&#x27;: False, &#x27;with_coverage&#x27;: False, &#x27;pid_filename&#x27;: &#x27;httpserver.pid&#x27;, &#x27;maxthreads&#x27;: None, &#x27;softcron&#x27;: False, &#x27;server_name&#x27;: &#x27;zhulieliedeMacBook-Pro.local&#x27;, &#x27;bpython&#x27;: False, &#x27;nogui&#x27;: False, &#x27;port&#x27;: 8000, &#x27;print_errors&#x27;: False, &#x27;extcron&#x27;: False, &#x27;runcron&#x27;: False, &#x27;run_system_tests&#x27;: False, &#x27;test&#x27;: None, &#x27;folder&#x27;: &#x27;/Users/zhulielie/PycharmProjects/gap2py/web2py&#x27;, &#x27;config&#x27;: &#x27;&#x27;, &#x27;minthreads&#x27;: None, &#x27;shell&#x27;: None, &#x27;run&#x27;: &#x27;&#x27;, &#x27;log_filename&#x27;: &#x27;httpserver.log&#x27;, &#x27;profiler_dir&#x27;: None, &#x27;args&#x27;: [&#x27;&#x27;], &#x27;socket_timeout&#x27;: 5, &#x27;ssl_ca_certificate&#x27;: None, &#x27;scheduler&#x27;: None, &#x27;interfaces&#x27;: None, &#x27;ssl_private_key&#x27;: &#x27;&#x27;, &#x27;gae&#x27;: None, &#x27;password&#x27;: &#x27;******&#x27;, &#x27;request_queue_size&#x27;: 5, &#x27;ssl_certificate&#x27;: &#x27;&#x27;, &#x27;cronjob&#x27;: False, &#x27;numthreads&#x27;: None, &#x27;quiet&#x27;: False, &#x27;import_models&#x27;: False, &#x27;timeout&#x27;: 10, &#x27;plain&#x27;: False, &#x27;nobanner&#x27;: False}&gt;</div></td></tr><tr><td style="font-weight:bold;vertical-align:top;">db_sessions</td><td style="vertical-align:top;">:</td><td><div>set([])</div></td></tr><tr><td style="font-weight:bold;vertical-align:top;">debugging</td><td style="vertical-align:top;">:</td><td><div>True</div></td></tr><tr><td style="font-weight:bold;vertical-align:top;">gluon_parent</td><td style="vertical-align:top;">:</td><td><div>/Users/zhulielie/PycharmProjects/gap2py/web2py</div></td></tr><tr><td style="font-weight:bold;vertical-align:top;">is_jython</td><td style="vertical-align:top;">:</td><td><div>False</div></td></tr><tr><td style="font-weight:bold;vertical-align:top;">is_pypy</td><td style="vertical-align:top;">:</td><td><div>False</div></td></tr><tr><td style="font-weight:bold;vertical-align:top;">is_source</td><td style="vertical-align:top;">:</td><td><div>True</div></td></tr><tr><td style="font-weight:bold;vertical-align:top;">local_hosts</td><td style="vertical-align:top;">:</td><td><div><table><tr><td><div>10.211.55.2</div></td></tr><tr><td><div>fe80::aebc:32ff:fe91:4749%en0</div></td></tr><tr><td><div>10.37.129.2</div></td></tr><tr><td><div>zhulieliedemacbook-pro.local</div></td></tr><tr><td><div>::1</div></td></tr><tr><td><div>::ffff:127.0.0.1</div></td></tr><tr><td><div>zhulieliedeMacBook-Pro.local</div></td></tr><tr><td><div>192.168.1.196</div></td></tr><tr><td><div>127.0.0.1</div></td></tr></table></div></td></tr><tr><td style="font-weight:bold;vertical-align:top;">web2py_version</td><td style="vertical-align:top;">:</td><td><div>2.14.6-stable+timestamp.2016.05.10.00.21.47</div></td></tr></table></div></td></tr><tr><td style="font-weight:bold;vertical-align:top;">is_https</td><td style="vertical-align:top;">:</td><td><div>False</div></td></tr><tr><td style="font-weight:bold;vertical-align:top;">is_local</td><td style="vertical-align:top;">:</td><td><div>True</div></td></tr><tr><td style="font-weight:bold;vertical-align:top;">is_restful</td><td style="vertical-align:top;">:</td><td><div>False</div></td></tr><tr><td style="font-weight:bold;vertical-align:top;">is_scheduler</td><td style="vertical-align:top;">:</td><td><div>False</div></td></tr><tr><td style="font-weight:bold;vertical-align:top;">is_shell</td><td style="vertical-align:top;">:</td><td><div>False</div></td></tr><tr><td style="font-weight:bold;vertical-align:top;">now</td><td style="vertical-align:top;">:</td><td><div>datetime.datetime(2016, 8, 12, 11, 4, 51, 235940)</div></td></tr><tr><td style="font-weight:bold;vertical-align:top;">raw_args</td><td style="vertical-align:top;">:</td><td><div></div></td></tr><tr><td style="font-weight:bold;vertical-align:top;">raw_extension</td><td style="vertical-align:top;">:</td><td><div>None</div></td></tr><tr><td style="font-weight:bold;vertical-align:top;">url</td><td style="vertical-align:top;">:</td><td><div>/gap2py/index/index</div></td></tr><tr><td style="font-weight:bold;vertical-align:top;">utcnow</td><td style="vertical-align:top;">:</td><td><div>datetime.datetime(2016, 8, 12, 3, 4, 51, 235947)</div></td></tr><tr><td style="font-weight:bold;vertical-align:top;">wsgi</td><td style="vertical-align:top;">:</td><td><div>&lt;gluon.main.LazyWSGI object at 0x1145dca50&gt;</div></td></tr></table></div>'
tRp58
sS'frames'
p59
(lp60
(dp61
S'file'
p62
S'/Users/zhulielie/PycharmProjects/gap2py/web2py/gluon/restricted.py'
p63
sS'dump'
p64
(dp65
S'environment'
p66
S"{'A': <class 'gluon.html.A'>, 'ANY_OF': <class 'gluon.validators.ANY_OF'>, 'ASSIGNJS': <function ASSIGNJS>, 'AppConfig': <function AppConfig>, 'Auth': <class 'gluon.tools.Auth'>, 'B': <class 'gluon.html.B'>, 'BEAUTIFY': <class 'gluon.html.BEAUTIFY'>, 'BODY': <class 'gluon.html.BODY'>, 'BR': <class 'gluon.html.BR'>, 'BUTTON': <class 'gluon.html.BUTTON'>, ...}"
p67
sS'ccode'
p68
S'<code object <module> at 0x113f35f30, file "/Use...lications/gap2py/views/index/index.html", line 1>'
p69
ssS'lnum'
p70
I227
sS'lines'
p71
(dp72
I224
S'            ccode = code'
p73
sI225
S'        else:'
p74
sI226
S'            ccode = compile2(code, layer)'
p75
sI227
S'        exec ccode in environment'
p76
sI228
S'    except HTTP:'
p77
sI229
S'        raise'
p78
sI230
S'    except RestrictedError:'
p79
sI231
S'        # do not encapsulate (obfuscate) the original RestrictedError'
p80
sI222
S'    try:'
p81
sI223
S'        if isinstance(code, types.CodeType):'
p82
ssS'call'
p83
S'(code=r"response.write(\'<!DOCTYPE html>\\n<html>\\n\\n\\n<he...</script>\\n\\n</body>\\n\\n\\n</html>\', escape=False)", environment={\'A\': <class \'gluon.html.A\'>, \'ANY_OF\': <class \'gluon.validators.ANY_OF\'>, \'ASSIGNJS\': <function ASSIGNJS>, \'AppConfig\': <function AppConfig>, \'Auth\': <class \'gluon.tools.Auth\'>, \'B\': <class \'gluon.html.B\'>, \'BEAUTIFY\': <class \'gluon.html.BEAUTIFY\'>, \'BODY\': <class \'gluon.html.BODY\'>, \'BR\': <class \'gluon.html.BR\'>, \'BUTTON\': <class \'gluon.html.BUTTON\'>, ...}, layer=\'/Users/zhulielie/PycharmProjects/gap2py/web2py/applications/gap2py/views/index/index.html\')'
p84
sS'func'
p85
S'restricted'
p86
sa(dp87
g62
S'/Users/zhulielie/PycharmProjects/gap2py/web2py/applications/gap2py/views/index/index.html'
p88
sg64
(dp89
S'href'
p90
S'undefined'
p91
sS'link'
p92
g91
sS'rel'
p93
g91
ssg70
I18
sg71
(dp94
I9
S'response.write(\'" rel="stylesheet">\\n    <!-- Sweet Alert -->\\n    <link href="\', escape=False)'
p95
sI10
S"response.write(URL('static','css/plugins/sweetalert/sweetalert.css'))"
p96
sI11
S'response.write(\'" rel="stylesheet">\\n    <link href="\', escape=False)'
p97
sI12
S"response.write(URL('static','css/animate.css'))"
p98
sI13
S'response.write(\'" rel="stylesheet">\\n    <link href="\', escape=False)'
p99
sI14
S"response.write(URL('static','css/style.css'))"
p100
sI15
S'response.write(\'" rel="stylesheet">\\n\\n</head>\\n<body class="" data-spy="scroll" data-target=".navbar-example">\\n\\n<div id="wrapper">\\n\\n    <nav class="navbar-default navbar-static-side navbar-example" role="navigation">\\n        <div class="sidebar-collapse">\\n            <ul class="nav metismenu">\\n                <li class="nav-header">\\n                    <div class="dropdown profile-element" style="text-align: center"> <span>\\n                            <img alt="image" class="img-circle" style="height: 45px"\\n                                 src="\', escape=False)'
p101
sI16
S"response.write(URL('static','img/admin.png'))"
p102
sI17
S'response.write(\'"/>\\n                             </span>\\n                        <a data-toggle="dropdown" class="dropdown-toggle" href="#">\\n                            <span class="clear"> <span class="block m-t-xs"> <strong class="font-bold">\\xe6\\xac\\xa2\\xe8\\xbf\\x8e\\xe7\\x99\\xbb\\xe9\\x99\\x86</strong>\\n                             </span> <span class="text-muted text-xs block">\', escape=False)'
p103
sI18
S'username'
p104
sI19
S'response.write(\' <b\\n                                    class="caret"></b></span> </span> </a>\\n                        <ul class="dropdown-menu animated fadeInRight m-t-xs">\\n                            <li><a href="#"\\n                                   onclick="$(\\\'#oldpass\\\').focus();swal({ title: \\\'\\xe4\\xbf\\xae\\xe6\\x94\\xb9\\xe5\\xaf\\x86\\xe7\\xa0\\x81\\\', text: \\\'\\xe5\\x8f\\xb3\\xe4\\xb8\\x8b\\xe8\\xa7\\x92\\xe8\\xbe\\x93\\xe5\\x85\\xa5\\xe6\\x97\\xa7\\xe5\\xaf\\x86\\xe7\\xa0\\x81\\xe5\\x92\\x8c\\xe6\\x96\\xb0\\xe5\\xaf\\x86\\xe7\\xa0\\x81\\\' });">\\xe4\\xbf\\xae\\xe6\\x94\\xb9\\xe5\\xaf\\x86\\xe7\\xa0\\x81</a>\\n                                <!--<li><a href="mailbox.html">Mailbox</a></li>-->\\n                            <li class="divider"></li>\\n                            <li><a href="/logout/">\\xe7\\x99\\xbb\\xe5\\x87\\xba</a></li>\\n                        </ul>\\n                    </div>\\n                    <div class="logo-element">\\n                        \\xe4\\xb8\\xad\\xe7\\xbd\\x91\\n                    </div>\\n                </li>\\n                <li>\\n                    <a href="#"><i class="fa fa-th-large"></i> <span class="nav-label">\\xe7\\xb3\\xbb\\xe7\\xbb\\x9f\\xe9\\x85\\x8d\\xe7\\xbd\\xae</span> <span\\n                            class="fa arrow"></span></a>\\n                    <ul class="nav nav-second-level">\\n                        <li><a href="#sysinfo">\\xe7\\xb3\\xbb\\xe7\\xbb\\x9f\\xe7\\x8a\\xb6\\xe6\\x80\\x81</a></li>\\n                        <li><a href="#inside">\\xe5\\x86\\x85\\xe9\\x83\\xa8\\xe4\\xb8\\xbb\\xe6\\x9c\\xba</a>\\n                        </li>\\n                        <li><a href="#outside">\\xe5\\xa4\\x96\\xe9\\x83\\xa8\\xe4\\xb8\\xbb\\xe6\\x9c\\xba</a>\\n                        </li>\\n                    </ul>\\n                </li>\\n                <li>\\n                    <a href="#"><i class="fa fa-bar-chart-o"></i> <span class="nav-label">\\xe5\\x87\\x86\\xe5\\x87\\xba\\xe6\\x8e\\x88\\xe4\\xbf\\xa1\\xe6\\x9c\\x8d\\xe5\\x8a\\xa1</span><span\\n                            class="fa arrow"></span></a>\\n                    <ul class="nav nav-second-level">\\n                        <li><a href="#tcpinside">TCP\\xe6\\x8e\\x88\\xe4\\xbf\\xa1\\xe8\\xae\\xbf\\xe9\\x97\\xae</a></li>\\n                        <li><a href="#ftpinside">FTP\\xe6\\x8e\\x88\\xe4\\xbf\\xa1\\xe8\\xae\\xbf\\xe9\\x97\\xae</a></li>\\n                        <li><a href="#orainside">ORACLE\\xe7\\x89\\xb9\\xe5\\x88\\xab\\xe6\\x8e\\x88\\xe4\\xbf\\xa1\\xe8\\xae\\xbf\\xe9\\x97\\xae</a></li>\\n                        <li><a href="#udpinside">UDP\\xe6\\x8e\\x88\\xe4\\xbf\\xa1\\xe8\\xae\\xbf\\xe9\\x97\\xae</a></li>\\n                    </ul>\\n                </li>\\n                <li>\\n                    <a href="#"><i class="fa fa-bar-chart-o"></i> <span class="nav-label">\\xe5\\x87\\x86\\xe5\\x85\\xa5\\xe6\\x8e\\x88\\xe4\\xbf\\xa1\\xe6\\x9c\\x8d\\xe5\\x8a\\xa1</span><span\\n                            class="fa arrow"></span></a>\\n                    <ul class="nav nav-second-level">\\n                        <li><a href="#tcpoutside">TCP\\xe6\\x8e\\x88\\xe4\\xbf\\xa1\\xe8\\xae\\xbf\\xe9\\x97\\xae</a></li>\\n                        <li><a href="#ftpoutside">FTP\\xe6\\x8e\\x88\\xe4\\xbf\\xa1\\xe8\\xae\\xbf\\xe9\\x97\\xae</a></li>\\n                        <li><a href="#oraoutside">ORACLE\\xe7\\x89\\xb9\\xe5\\x88\\xab\\xe6\\x8e\\x88\\xe4\\xbf\\xa1\\xe8\\xae\\xbf\\xe9\\x97\\xae</a></li>\\n                        <li><a href="#udpoutside">UDP\\xe6\\x8e\\x88\\xe4\\xbf\\xa1\\xe8\\xae\\xbf\\xe9\\x97\\xae</a></li>\\n                    </ul>\\n                </li>\\n                <li>\\n                    <a href="#"><i class="fa fa-bar-chart-o"></i> <span class="nav-label">\\xe8\\xae\\xa4\\xe8\\xaf\\x81\\xe7\\xae\\xa1\\xe7\\x90\\x86</span><span\\n                            class="fa arrow"></span></a>\\n                    <ul class="nav nav-second-level">\\n                        <li><a href="#authrule">\\xe8\\xae\\xa4\\xe8\\xaf\\x81\\xe8\\xa7\\x84\\xe5\\x88\\x99</a></li>\\n                    </ul>\\n                </li>\\n                <li>\\n                    <a href="#"><i class="fa fa-bar-chart-o"></i> <span class="nav-label">\\xe7\\x83\\xad\\xe5\\xa4\\x87\\xe4\\xbb\\xbd</span><span\\n                            class="fa arrow"></span></a>\\n                    <ul class="nav nav-second-level">\\n                        <li><a href="#hotbackup">\\xe5\\x8f\\x8c\\xe6\\x9c\\xba\\xe7\\x83\\xad\\xe5\\xa4\\x87\\xe9\\x85\\x8d\\xe7\\xbd\\xae</a></li>\\n\\n                    </ul>\\n                </li>\\n                <li>\\n                    <a href="#"><i class="fa fa-bar-chart-o"></i> <span class="nav-label">\\xe6\\x97\\xa5\\xe5\\xbf\\x97\\xe6\\x9f\\xa5\\xe7\\x9c\\x8b</span><span\\n                            class="fa arrow"></span></a>\\n                    <ul class="nav nav-second-level">\\n                        <li><a href="#loginside">\\xe5\\x86\\x85\\xe7\\xbd\\x91\\xe6\\x9c\\xba\\xe6\\x97\\xa5\\xe5\\xbf\\x97</a></li>\\n                        <li><a href="#logoutside">\\xe5\\xa4\\x96\\xe7\\xbd\\x91\\xe6\\x9c\\xba\\xe6\\x97\\xa5\\xe5\\xbf\\x97</a></li>\\n\\n                    </ul>\\n                </li>\\n            </ul>\\n        </div>\\n    </nav>\\n\\n    <div id="page-wrapper" class="gray-bg">\\n        <div class="row border-bottom" id="top">\\n            <nav class="navbar navbar-static-top  " role="navigation" style="margin-bottom: 0">\\n                <div class="navbar-header">\\n                    <a class="navbar-minimalize minimalize-styl-2 btn btn-primary " href="#"><i\\n                            class="fa fa-bars"></i>\\n                    </a>\\n\\n                </div>\\n                <ul class="nav navbar-top-links navbar-right">\\n                    <li>\\n                        <span class="m-r-sm text-muted welcome-message">\\xe4\\xb8\\xad\\xe7\\xbd\\x91\\xe9\\xa9\\xb0\\xe4\\xba\\x91\\xe9\\x9a\\x94\\xe7\\xa6\\xbb\\xe7\\xbd\\x91\\xe9\\x97\\xb8WEB\\xe7\\xae\\xa1\\xe7\\x90\\x86 </span><code>v6.99</code>\\n                    </li>\\n                    <li class="dropdown">\\n                        <a class="dropdown-toggle count-info" data-toggle="dropdown" href="#">\\n                            <i class="fa fa-bell"></i> <span class="label label-primary" id="nr_tip"></span>\\n                        </a>\\n                        <ul class="dropdown-menu dropdown-alerts">\\n                            <li>\\n                                <div class="text-center link-block">\\n                                    <strong id="nr_info">\\xe6\\xb2\\xa1\\xe6\\x9c\\x89\\xe4\\xbb\\xbb\\xe4\\xbd\\x95\\xe6\\x8f\\x90\\xe9\\x86\\x92</strong>\\n                                </div>\\n                            </li>\\n                        </ul>\\n                    </li>\\n\\n\\n                    <li>\\n                        <a href="/logout/">\\n                            <i class="fa fa-sign-out"></i> \\xe6\\xb3\\xa8\\xe9\\x94\\x80\\n                        </a>\\n                    </li>\\n                </ul>\\n\\n            </nav>\\n        </div>\\n        <!--<div class="row wrapper border-bottom white-bg page-heading">-->\\n        <!--<div class="col-sm-4">-->\\n        <!--<h2>This is main title</h2>-->\\n        <!--<ol class="breadcrumb">-->\\n        <!--<li>-->\\n        <!--<a href="index.html">This is</a>-->\\n        <!--</li>-->\\n        <!--<li class="active">-->\\n        <!--<strong>Breadcrumb</strong>-->\\n        <!--</li>-->\\n        <!--</ol>-->\\n        <!--</div>-->\\n        <!--<div class="col-sm-8">-->\\n        <!--<div class="title-action">-->\\n        <!--<a href="" class="btn btn-primary">\\xe4\\xbf\\x9d\\xe5\\xad\\x98</a>-->\\n        <!--<a href="" class="btn btn-primary">\\xe9\\x87\\x8d\\xe5\\x90\\xaf</a>-->\\n        <!--<a href="" class="btn btn-primary">\\xe5\\x85\\xb3\\xe6\\x9c\\xba</a>-->\\n        <!--</div>-->\\n        <!--</div>-->\\n        <!--</div>-->\\n\\n        <div class="wrapper wrapper-content">\\n            <div class="row">\\n                <div class="col-lg-12">\\n                    <div class="ibox float-e-margins">\\n                        <div class="ibox-title">\\n                            <h5 id="sysinfo">\\xe7\\xb3\\xbb\\xe7\\xbb\\x9f\\xe4\\xbf\\xa1\\xe6\\x81\\xaf <code id="refresh_info">\\xe6\\xaf\\x8f1\\xe5\\x88\\x86\\xe9\\x92\\x9f\\xe5\\x88\\xb7\\xe6\\x96\\xb0</code></h5>\\n\\n                            <div class="ibox-tools">\\n                                <a class="collapse-link">\\n                                    <i class="fa fa-chevron-up"></i>\\n                                </a>\\n                                <a class="dropdown-toggle" data-toggle="dropdown" href="#">\\n                                    <i class="fa fa-refresh"></i>\\n                                </a>\\n                                <ul class="dropdown-menu dropdown-user zll_fresh">\\n                                    <li zll_act="0"><a href="#">\\xe4\\xb8\\x8d\\xe5\\x88\\xb7\\xe6\\x96\\xb0</a>\\n                                    </li>\\n                                    <li zll_act="60"><a href="#">\\xe6\\xaf\\x8f1\\xe5\\x88\\x86\\xe9\\x92\\x9f\\xe5\\x88\\xb7\\xe6\\x96\\xb0</a>\\n                                    </li>\\n                                    <li zll_act="600"><a href="#">\\xe6\\xaf\\x8f10\\xe5\\x88\\x86\\xe9\\x92\\x9f\\xe5\\x88\\xb7\\xe6\\x96\\xb0</a>\\n                                    </li>\\n                                </ul>\\n                                <a class="close-link">\\n                                    <i class="fa fa-times"></i>\\n                                </a>\\n                            </div>\\n                        </div>\\n                        <div class="ibox-content  ">\\n\\n                            <div class="row">\\n                                <div class="col-lg-6">\\n                                    <div class="panel panel-default">\\n                                        <div class="panel-heading">\\n                                            <h3><strong>\\xe5\\x86\\x85\\xe7\\xbd\\x91\\xe6\\x9c\\xba</strong>\\n                                                <small> \\xe5\\xbc\\x80\\xe6\\x9c\\xba\\xe6\\x97\\xb6\\xe9\\x95\\xbf <span id="ia_uptime">0</span></small>\\n                                            </h3>\\n                                        </div>\\n                                        <div class="panel-body ">\\n\\n\\n                                            <div id="ia">\\n                                                <div>\\n                                                    <span>CPU</span>\\n                                                    <small class="pull-right use_cpu">0%</small>\\n                                                </div>\\n                                                <div class="progress progress-small">\\n                                                    <div style="width: 0%;" class="progress-bar use_cpu_bar"></div>\\n                                                </div>\\n\\n                                                <div>\\n                                                    <span>\\xe5\\x86\\x85\\xe5\\xad\\x98</span>\\n                                                    <small class="pull-right use_mem">0%</small>\\n                                                </div>\\n                                                <div class="progress progress-small">\\n                                                    <div style="width: 0%;" class="progress-bar use_mem_bar"></div>\\n                                                </div>\\n\\n                                                <div>\\n                                                    <span>\\xe7\\xa3\\x81\\xe7\\x9b\\x98</span>\\n                                                    <small class="pull-right use_disk">0%</small>\\n                                                </div>\\n                                                <div class="progress progress-small">\\n                                                    <div style="width: 0%;"\\n                                                         class="progress-bar progress-bar-danger use_disk_bar"></div>\\n                                                </div>\\n                                            </div>\\n\\n                                        </div>\\n                                    </div>\\n\\n                                </div>\\n                                <div class="col-lg-6">\\n                                    <div class="panel panel-default">\\n                                        <div class="panel-heading">\\n                                            <h3><strong>\\xe5\\xa4\\x96\\xe7\\xbd\\x91\\xe6\\x9c\\xba</strong>\\n                                                <small> \\xe5\\xbc\\x80\\xe6\\x9c\\xba\\xe6\\x97\\xb6\\xe9\\x95\\xbf <span id="oa_uptime">0</span></small>\\n                                            </h3>\\n                                        </div>\\n                                        <div class="panel-body ">\\n\\n\\n                                            <div id="oa">\\n                                                <div>\\n                                                    <span>CPU</span>\\n                                                    <small class="pull-right use_cpu">0%</small>\\n                                                </div>\\n                                                <div class="progress progress-small">\\n                                                    <div style="width: 0%;" class="progress-bar use_cpu_bar"></div>\\n                                                </div>\\n\\n                                                <div>\\n                                                    <span>\\xe5\\x86\\x85\\xe5\\xad\\x98</span>\\n                                                    <small class="pull-right use_mem">0%</small>\\n                                                </div>\\n                                                <div class="progress progress-small">\\n                                                    <div style="width: 0%;" class="progress-bar use_mem_bar"></div>\\n                                                </div>\\n\\n                                                <div>\\n                                                    <span>\\xe7\\xa3\\x81\\xe7\\x9b\\x98</span>\\n                                                    <small class="pull-right use_disk">0%</small>\\n                                                </div>\\n                                                <div class="progress progress-small">\\n                                                    <div style="width: 0%;"\\n                                                         class="progress-bar progress-bar-danger use_disk_bar"></div>\\n                                                </div>\\n                                            </div>\\n\\n                                        </div>\\n                                    </div>\\n                                </div>\\n                            </div>\\n\\n                        </div>\\n                    </div>\\n                </div>\\n\\n            </div>\\n            <div class="row ia">\\n                <div class="col-lg-12">\\n                    <div class="ibox float-e-margins">\\n                        <div class="ibox-title">\\n                            <h5 id="inside">\\xe5\\x86\\x85\\xe9\\x83\\xa8\\xe4\\xb8\\xbb\\xe6\\x9c\\xba\\n                                <span class="label  pull-right status"></span>\\n                            </h5>\\n\\n                            <div class="ibox-tools">\\n                                <a class="collapse-link">\\n                                    <i class="fa fa-chevron-up"></i>\\n                                </a>\\n\\n\\n                            </div>\\n                        </div>\\n\\n                        <div class="ibox-content">\\n                            <form class="form-horizontal m-t-md" action="#">\\n                                <div class="form-group ">\\n\\n                                    <div class="row ">\\n                                        <div class="col-xs-10 col-lg-offset-1 address">\\n                                            <div class="panel panel-default">\\n                                                <div class="panel-heading">\\xe8\\xb7\\xaf\\xe7\\x94\\xb1\\xe5\\x92\\x8c\\xe9\\xbb\\x98\\xe8\\xae\\xa4\\xe7\\xbd\\x91\\xe5\\x85\\xb3\\n                                                    <button class="btn btn-primary   router-add" type="button"><i\\n                                                            class="fa fa-plus"></i> \\xe6\\xb7\\xbb\\xe5\\x8a\\xa0\\xe8\\xb7\\xaf\\xe7\\x94\\xb1\\n                                                    </button>\\n                                                </div>\\n                                                <div class="panel-body ">\\n\\n\\n                                                    <table class="table table-striped  table-condensed ">\\n                                                        <tbody class="router">\\n                                                        <tr>\\n                                                            <td>\\xe9\\xbb\\x98\\xe8\\xae\\xa4\\xe7\\xbd\\x91\\xe5\\x85\\xb3\\n                                                            </td>\\n                                                            <td><input type="text"\\n                                                                       class="form-control defaultgateway"\\n                                                                       zll-type="ipv4" maxlength="15"\\n                                                                       placeholder="IP\\xe5\\x9c\\xb0\\xe5\\x9d\\x80">\\n                                                            </td>\\n\\n                                                            <td></td>\\n                                                            <td></td>\\n                                                            <td></td>\\n                                                            <td></td>\\n                                                            <td></td>\\n                                                        </tr>\\n\\n\\n                                                        </tbody>\\n                                                    </table>\\n\\n                                                </div>\\n                                            </div>\\n\\n\\n                                        </div>\\n                                    </div>\\n\\n                                </div>\\n\\n                            </form>\\n                        </div>\\n                    </div>\\n                </div>\\n\\n            </div>\\n            <div class="row oa">\\n                <div class="col-lg-12">\\n                    <div class="ibox float-e-margins">\\n                        <div class="ibox-title">\\n                            <h5 id="outside">\\xe5\\xa4\\x96\\xe9\\x83\\xa8\\xe4\\xb8\\xbb\\xe6\\x9c\\xba\\n                                <span class="label  pull-right status"></span>\\n                            </h5>\\n\\n                            <div class="ibox-tools">\\n                                <a class="collapse-link">\\n                                    <i class="fa fa-chevron-up"></i>\\n                                </a>\\n\\n\\n                            </div>\\n                        </div>\\n\\n                        <div class="ibox-content">\\n                            <form class="form-horizontal m-t-md" action="#">\\n                                <div class="form-group ">\\n\\n                                    <div class="row ">\\n                                        <div class="col-xs-10 col-lg-offset-1 address">\\n                                            <div class="panel panel-default">\\n                                                <div class="panel-heading">\\xe8\\xb7\\xaf\\xe7\\x94\\xb1\\xe5\\x92\\x8c\\xe9\\xbb\\x98\\xe8\\xae\\xa4\\xe7\\xbd\\x91\\xe5\\x85\\xb3\\n                                                    <button class="btn btn-primary   router-add" type="button"><i\\n                                                            class="fa fa-plus"></i> \\xe6\\xb7\\xbb\\xe5\\x8a\\xa0\\xe8\\xb7\\xaf\\xe7\\x94\\xb1\\n                                                    </button>\\n                                                </div>\\n                                                <div class="panel-body ">\\n\\n\\n                                                    <table class="table table-striped  table-condensed ">\\n                                                        <tbody class="router">\\n                                                        <tr>\\n                                                            <td>\\xe9\\xbb\\x98\\xe8\\xae\\xa4\\xe7\\xbd\\x91\\xe5\\x85\\xb3\\n                                                            </td>\\n                                                            <td><input type="text"\\n                                                                       class="form-control defaultgateway"\\n                                                                       zll-type="ipv4" maxlength="15"\\n                                                                       placeholder="IP\\xe5\\x9c\\xb0\\xe5\\x9d\\x80">\\n                                                            </td>\\n                                                            <td></td>\\n                                                            <td></td>\\n                                                            <td></td>\\n                                                            <td></td>\\n                                                            <td></td>\\n                                                        </tr>\\n                                                        </tbody>\\n                                                    </table>\\n                                                </div>\\n                                            </div>\\n                                        </div>\\n                                    </div>\\n                                </div>\\n                            </form>\\n                        </div>\\n                    </div>\\n                </div>\\n            </div>\\n        </div>\\n        <div class="row OUT_TCP" zll_status="0">\\n            <div class="col-lg-12">\\n                <div class="ibox float-e-margins">\\n                    <div class="ibox-title">\\n                        <h5 id="tcpinside">\\xe5\\x87\\x86\\xe5\\x87\\xba - TCP\\xe6\\x8e\\x88\\xe4\\xbf\\xa1\\xe8\\xae\\xbf\\xe9\\x97\\xae\\n                            <span class="label  pull-right status"></span>\\n                        </h5>\\n\\n                        <div class="ibox-tools">\\n                            <button class="collapse-link">\\n                                <i class="fa fa-chevron-up"></i>\\n                            </button>\\n                            <button title="\\xe5\\x90\\xaf\\xe7\\x94\\xa8" href="#" class=" startorstop">\\n                                <i class="fa fa-play"></i>\\n                            </button>\\n\\n                            <button title="\\xe5\\x81\\x9c\\xe7\\x94\\xa8" href="#" class=" startorstop">\\n                                <i class="fa fa-stop "></i>\\n                            </button>\\n\\n\\n                        </div>\\n                    </div>\\n\\n                    <div class="ibox-content">\\n                        <form class="form-horizontal m-t-md" action="#">\\n                            <div class="form-group ">\\n                                <div class="row ">\\n                                    <div class="col-xs-10 col-lg-offset-1 ">\\n                                        <div class="panel panel-default">\\n                                            <div class="panel-heading">\\xe7\\xad\\x96\\xe7\\x95\\xa5\\xe8\\xae\\xbe\\xe7\\xbd\\xae\\n                                                <button class="btn btn-primary   gapline-add" type="button"><i\\n                                                        class="fa fa-plus"></i> \\xe6\\xb7\\xbb\\xe5\\x8a\\xa0\\xe7\\xad\\x96\\xe7\\x95\\xa5\\n                                                </button>\\n                                            </div>\\n                                            <div class="panel-body ">\\n                                                <table class="table  table-striped  table-condensed tcpinside">\\n                                                    <tr>\\n                                                        <td></td>\\n                                                        <td>\\xe5\\x90\\x8d\\xe7\\xa7\\xb0</td>\\n                                                        <td>\\xe4\\xbb\\xa3\\xe7\\x90\\x86\\xe5\\x9c\\xb0\\xe5\\x9d\\x80</td>\\n                                                        <td>\\xe7\\xab\\xaf\\xe5\\x8f\\xa3</td>\\n                                                        <td>\\xe7\\x9b\\xae\\xe6\\xa0\\x87\\xe5\\x9c\\xb0\\xe5\\x9d\\x80</td>\\n                                                        <td>\\xe7\\xab\\xaf\\xe5\\x8f\\xa3</td>\\n                                                        <td></td>\\n                                                    </tr>\\n                                                </table>\\n                                            </div>\\n                                        </div>\\n                                    </div>\\n                                </div>\\n                            </div>\\n                        </form>\\n                    </div>\\n                </div>\\n            </div>\\n\\n        </div>\\n        <div class="row OUT_FTP">\\n            <div class="col-lg-12">\\n                <div class="ibox float-e-margins">\\n                    <div class="ibox-title">\\n                        <h5 id="ftpinside">\\xe5\\x87\\x86\\xe5\\x87\\xba - FTP\\xe6\\x8e\\x88\\xe4\\xbf\\xa1\\xe8\\xae\\xbf\\xe9\\x97\\xae\\n                            <span class="label  pull-right status"></span>\\n                        </h5>\\n\\n                        <div class="ibox-tools">\\n                            <button class="collapse-link">\\n                                <i class="fa fa-chevron-up"></i>\\n                            </button>\\n                            <button title="\\xe5\\x90\\xaf\\xe7\\x94\\xa8" href="#" class=" startorstop">\\n                                <i class="fa fa-play"></i>\\n                            </button>\\n\\n                            <button title="\\xe5\\x81\\x9c\\xe7\\x94\\xa8" href="#" class=" startorstop">\\n                                <i class="fa fa-stop "></i>\\n                            </button>\\n\\n\\n                        </div>\\n                    </div>\\n\\n                    <div class="ibox-content">\\n                        <form class="form-horizontal m-t-md" action="#">\\n                            <div class="form-group ">\\n                                <div class="row ">\\n                                    <div class="col-xs-10 col-lg-offset-1 ">\\n                                        <div class="panel panel-default">\\n                                            <div class="panel-heading">\\xe7\\xad\\x96\\xe7\\x95\\xa5\\xe8\\xae\\xbe\\xe7\\xbd\\xae\\n                                                <button class="btn btn-primary   gapline-add" type="button"><i\\n                                                        class="fa fa-plus"></i> \\xe6\\xb7\\xbb\\xe5\\x8a\\xa0\\xe7\\xad\\x96\\xe7\\x95\\xa5\\n                                                </button>\\n                                            </div>\\n                                            <div class="panel-body ">\\n                                                <table class="table  table-striped  table-condensed tcpinside">\\n                                                    <tr>\\n                                                        <td></td>\\n                                                        <td>\\xe5\\x90\\x8d\\xe7\\xa7\\xb0</td>\\n                                                        <td>\\xe4\\xbb\\xa3\\xe7\\x90\\x86\\xe5\\x9c\\xb0\\xe5\\x9d\\x80</td>\\n                                                        <td>\\xe7\\xab\\xaf\\xe5\\x8f\\xa3</td>\\n                                                        <td>\\xe7\\x9b\\xae\\xe6\\xa0\\x87\\xe5\\x9c\\xb0\\xe5\\x9d\\x80</td>\\n                                                        <td>\\xe7\\xab\\xaf\\xe5\\x8f\\xa3</td>\\n                                                        <td></td>\\n                                                    </tr>\\n                                                </table>\\n                                            </div>\\n                                        </div>\\n                                    </div>\\n                                </div>\\n                            </div>\\n                        </form>\\n                    </div>\\n                </div>\\n            </div>\\n\\n        </div>\\n        <div class="row OUT_ORA">\\n            <div class="col-lg-12">\\n                <div class="ibox float-e-margins">\\n                    <div class="ibox-title">\\n                        <h5 id="orainside">\\xe5\\x87\\x86\\xe5\\x87\\xba - ORACLE\\xe7\\x89\\xb9\\xe5\\x88\\xab\\xe6\\x8e\\x88\\xe4\\xbf\\xa1\\xe8\\xae\\xbf\\xe9\\x97\\xae\\n                            <span class="label  pull-right status"></span>\\n                        </h5>\\n\\n                        <div class="ibox-tools">\\n                            <button class="collapse-link">\\n                                <i class="fa fa-chevron-up"></i>\\n                            </button>\\n                            <button title="\\xe5\\x90\\xaf\\xe7\\x94\\xa8" href="#" class=" startorstop">\\n                                <i class="fa fa-play"></i>\\n                            </button>\\n\\n                            <button title="\\xe5\\x81\\x9c\\xe7\\x94\\xa8" href="#" class=" startorstop">\\n                                <i class="fa fa-stop "></i>\\n                            </button>\\n\\n\\n                        </div>\\n                    </div>\\n\\n                    <div class="ibox-content">\\n                        <form class="form-horizontal m-t-md" action="#">\\n                            <div class="form-group ">\\n                                <div class="row ">\\n                                    <div class="col-xs-10 col-lg-offset-1 ">\\n                                        <div class="panel panel-default">\\n                                            <div class="panel-heading">\\xe7\\xad\\x96\\xe7\\x95\\xa5\\xe8\\xae\\xbe\\xe7\\xbd\\xae\\n                                                <button class="btn btn-primary   gapline-add" type="button"><i\\n                                                        class="fa fa-plus"></i> \\xe6\\xb7\\xbb\\xe5\\x8a\\xa0\\xe7\\xad\\x96\\xe7\\x95\\xa5\\n                                                </button>\\n                                            </div>\\n                                            <div class="panel-body ">\\n                                                <table class="table  table-striped  table-condensed tcpinside">\\n                                                    <tr>\\n                                                        <td></td>\\n                                                        <td>\\xe5\\x90\\x8d\\xe7\\xa7\\xb0</td>\\n                                                        <td>\\xe4\\xbb\\xa3\\xe7\\x90\\x86\\xe5\\x9c\\xb0\\xe5\\x9d\\x80</td>\\n                                                        <td>\\xe7\\xab\\xaf\\xe5\\x8f\\xa3</td>\\n                                                        <td>\\xe7\\x9b\\xae\\xe6\\xa0\\x87\\xe5\\x9c\\xb0\\xe5\\x9d\\x80</td>\\n                                                        <td>\\xe7\\xab\\xaf\\xe5\\x8f\\xa3</td>\\n                                                        <td></td>\\n                                                    </tr>\\n                                                </table>\\n                                            </div>\\n                                        </div>\\n                                    </div>\\n                                </div>\\n                            </div>\\n                        </form>\\n                    </div>\\n                </div>\\n            </div>\\n\\n        </div>\\n        <div class="row OUT_UDP">\\n            <div class="col-lg-12">\\n                <div class="ibox float-e-margins">\\n                    <div class="ibox-title">\\n                        <h5 id="udpinside">\\xe5\\x87\\x86\\xe5\\x87\\xba - UDP\\xe6\\x8e\\x88\\xe4\\xbf\\xa1\\xe8\\xae\\xbf\\xe9\\x97\\xae\\n                            <span class="label  pull-right status"></span>\\n                        </h5>\\n\\n                        <div class="ibox-tools">\\n                            <button class="collapse-link">\\n                                <i class="fa fa-chevron-up"></i>\\n                            </button>\\n                            <button title="\\xe5\\x90\\xaf\\xe7\\x94\\xa8" href="#" class=" startorstop">\\n                                <i class="fa fa-play"></i>\\n                            </button>\\n\\n                            <button title="\\xe5\\x81\\x9c\\xe7\\x94\\xa8" href="#" class=" startorstop">\\n                                <i class="fa fa-stop "></i>\\n                            </button>\\n\\n\\n                        </div>\\n                    </div>\\n\\n                    <div class="ibox-content">\\n                        <form class="form-horizontal m-t-md" action="#">\\n                            <div class="form-group ">\\n                                <div class="row ">\\n                                    <div class="col-xs-10 col-lg-offset-1 ">\\n                                        <div class="panel panel-default">\\n                                            <div class="panel-heading">\\xe7\\xad\\x96\\xe7\\x95\\xa5\\xe8\\xae\\xbe\\xe7\\xbd\\xae\\n                                                <button class="btn btn-primary   gapline-add" type="button"><i\\n                                                        class="fa fa-plus"></i> \\xe6\\xb7\\xbb\\xe5\\x8a\\xa0\\xe7\\xad\\x96\\xe7\\x95\\xa5\\n                                                </button>\\n                                            </div>\\n                                            <div class="panel-body ">\\n                                                <table class="table  table-striped  table-condensed tcpinside">\\n                                                    <tr>\\n                                                        <td></td>\\n                                                        <td>\\xe5\\x90\\x8d\\xe7\\xa7\\xb0</td>\\n                                                        <td>\\xe4\\xbb\\xa3\\xe7\\x90\\x86\\xe5\\x9c\\xb0\\xe5\\x9d\\x80</td>\\n                                                        <td>\\xe7\\xab\\xaf\\xe5\\x8f\\xa3</td>\\n                                                        <td>\\xe7\\x9b\\xae\\xe6\\xa0\\x87\\xe5\\x9c\\xb0\\xe5\\x9d\\x80</td>\\n                                                        <td>\\xe7\\xab\\xaf\\xe5\\x8f\\xa3</td>\\n                                                        <td></td>\\n                                                    </tr>\\n                                                </table>\\n                                            </div>\\n                                        </div>\\n                                    </div>\\n                                </div>\\n                            </div>\\n                        </form>\\n                    </div>\\n                </div>\\n            </div>\\n\\n        </div>\\n        <div class="row IN_TCP">\\n            <div class="col-lg-12">\\n                <div class="ibox float-e-margins">\\n                    <div class="ibox-title">\\n                        <h5 id="tcpoutside">\\xe5\\x87\\x86\\xe5\\x85\\xa5 - TCP\\xe6\\x8e\\x88\\xe4\\xbf\\xa1\\xe8\\xae\\xbf\\xe9\\x97\\xae\\n                            <span class="label  pull-right status"></span>\\n                        </h5>\\n\\n                        <div class="ibox-tools">\\n                            <button class="collapse-link">\\n                                <i class="fa fa-chevron-up"></i>\\n                            </button>\\n                            <button title="\\xe5\\x90\\xaf\\xe7\\x94\\xa8" href="#" class=" startorstop">\\n                                <i class="fa fa-play"></i>\\n                            </button>\\n\\n                            <button title="\\xe5\\x81\\x9c\\xe7\\x94\\xa8" href="#" class=" startorstop">\\n                                <i class="fa fa-stop "></i>\\n                            </button>\\n\\n\\n                        </div>\\n                    </div>\\n\\n                    <div class="ibox-content">\\n                        <form class="form-horizontal m-t-md" action="#">\\n                            <div class="form-group ">\\n                                <div class="row ">\\n                                    <div class="col-xs-10 col-lg-offset-1 ">\\n                                        <div class="panel panel-default">\\n                                            <div class="panel-heading">\\xe7\\xad\\x96\\xe7\\x95\\xa5\\xe8\\xae\\xbe\\xe7\\xbd\\xae\\n                                                <button class="btn btn-primary   gapline-add" type="button"><i\\n                                                        class="fa fa-plus"></i> \\xe6\\xb7\\xbb\\xe5\\x8a\\xa0\\xe7\\xad\\x96\\xe7\\x95\\xa5\\n                                                </button>\\n                                            </div>\\n                                            <div class="panel-body ">\\n                                                <table class="table  table-striped  table-condensed tcpinside">\\n                                                    <tr>\\n                                                        <td></td>\\n                                                        <td>\\xe5\\x90\\x8d\\xe7\\xa7\\xb0</td>\\n                                                        <td>\\xe4\\xbb\\xa3\\xe7\\x90\\x86\\xe5\\x9c\\xb0\\xe5\\x9d\\x80</td>\\n                                                        <td>\\xe7\\xab\\xaf\\xe5\\x8f\\xa3</td>\\n                                                        <td>\\xe7\\x9b\\xae\\xe6\\xa0\\x87\\xe5\\x9c\\xb0\\xe5\\x9d\\x80</td>\\n                                                        <td>\\xe7\\xab\\xaf\\xe5\\x8f\\xa3</td>\\n                                                        <td></td>\\n                                                    </tr>\\n                                                </table>\\n                                            </div>\\n                                        </div>\\n                                    </div>\\n                                </div>\\n                            </div>\\n                        </form>\\n                    </div>\\n                </div>\\n            </div>\\n\\n        </div>\\n        <div class="row IN_FTP">\\n            <div class="col-lg-12">\\n                <div class="ibox float-e-margins">\\n                    <div class="ibox-title">\\n                        <h5 id="ftpoutside">\\xe5\\x87\\x86\\xe5\\x85\\xa5 - FTP\\xe6\\x8e\\x88\\xe4\\xbf\\xa1\\xe8\\xae\\xbf\\xe9\\x97\\xae\\n                            <span class="label  pull-right status"></span>\\n                        </h5>\\n\\n                        <div class="ibox-tools">\\n                            <button class="collapse-link">\\n                                <i class="fa fa-chevron-up"></i>\\n                            </button>\\n                            <button title="\\xe5\\x90\\xaf\\xe7\\x94\\xa8" href="#" class=" startorstop">\\n                                <i class="fa fa-play"></i>\\n                            </button>\\n\\n                            <button title="\\xe5\\x81\\x9c\\xe7\\x94\\xa8" href="#" class=" startorstop">\\n                                <i class="fa fa-stop "></i>\\n                            </button>\\n\\n\\n                        </div>\\n                    </div>\\n\\n                    <div class="ibox-content">\\n                        <form class="form-horizontal m-t-md" action="#">\\n                            <div class="form-group ">\\n                                <div class="row ">\\n                                    <div class="col-xs-10 col-lg-offset-1 ">\\n                                        <div class="panel panel-default">\\n                                            <div class="panel-heading">\\xe7\\xad\\x96\\xe7\\x95\\xa5\\xe8\\xae\\xbe\\xe7\\xbd\\xae\\n                                                <button class="btn btn-primary   gapline-add" type="button"><i\\n                                                        class="fa fa-plus"></i> \\xe6\\xb7\\xbb\\xe5\\x8a\\xa0\\xe7\\xad\\x96\\xe7\\x95\\xa5\\n                                                </button>\\n                                            </div>\\n                                            <div class="panel-body ">\\n                                                <table class="table  table-striped  table-condensed tcpinside">\\n                                                    <tr>\\n                                                        <td></td>\\n                                                        <td>\\xe5\\x90\\x8d\\xe7\\xa7\\xb0</td>\\n                                                        <td>\\xe4\\xbb\\xa3\\xe7\\x90\\x86\\xe5\\x9c\\xb0\\xe5\\x9d\\x80</td>\\n                                                        <td>\\xe7\\xab\\xaf\\xe5\\x8f\\xa3</td>\\n                                                        <td>\\xe7\\x9b\\xae\\xe6\\xa0\\x87\\xe5\\x9c\\xb0\\xe5\\x9d\\x80</td>\\n                                                        <td>\\xe7\\xab\\xaf\\xe5\\x8f\\xa3</td>\\n                                                        <td></td>\\n                                                    </tr>\\n                                                </table>\\n                                            </div>\\n                                        </div>\\n                                    </div>\\n                                </div>\\n                            </div>\\n                        </form>\\n                    </div>\\n                </div>\\n            </div>\\n\\n        </div>\\n        <div class="row IN_ORA">\\n            <div class="col-lg-12">\\n                <div class="ibox float-e-margins">\\n                    <div class="ibox-title">\\n                        <h5 id="oraoutside">\\xe5\\x87\\x86\\xe5\\x85\\xa5 - ORACLE\\xe7\\x89\\xb9\\xe5\\x88\\xab\\xe6\\x8e\\x88\\xe4\\xbf\\xa1\\xe8\\xae\\xbf\\xe9\\x97\\xae\\n                            <span class="label  pull-right status"></span>\\n                        </h5>\\n\\n                        <div class="ibox-tools">\\n                            <button class="collapse-link">\\n                                <i class="fa fa-chevron-up"></i>\\n                            </button>\\n                            <button title="\\xe5\\x90\\xaf\\xe7\\x94\\xa8" href="#" class=" startorstop">\\n                                <i class="fa fa-play"></i>\\n                            </button>\\n\\n                            <button title="\\xe5\\x81\\x9c\\xe7\\x94\\xa8" href="#" class=" startorstop">\\n                                <i class="fa fa-stop "></i>\\n                            </button>\\n\\n\\n                        </div>\\n                    </div>\\n\\n                    <div class="ibox-content">\\n                        <form class="form-horizontal m-t-md" action="#">\\n                            <div class="form-group ">\\n                                <div class="row ">\\n                                    <div class="col-xs-10 col-lg-offset-1 ">\\n                                        <div class="panel panel-default">\\n                                            <div class="panel-heading">\\xe7\\xad\\x96\\xe7\\x95\\xa5\\xe8\\xae\\xbe\\xe7\\xbd\\xae\\n                                                <button class="btn btn-primary   gapline-add" type="button"><i\\n                                                        class="fa fa-plus"></i> \\xe6\\xb7\\xbb\\xe5\\x8a\\xa0\\xe7\\xad\\x96\\xe7\\x95\\xa5\\n                                                </button>\\n                                            </div>\\n                                            <div class="panel-body ">\\n                                                <table class="table  table-striped  table-condensed tcpinside">\\n                                                    <tr>\\n                                                        <td></td>\\n                                                        <td>\\xe5\\x90\\x8d\\xe7\\xa7\\xb0</td>\\n                                                        <td>\\xe4\\xbb\\xa3\\xe7\\x90\\x86\\xe5\\x9c\\xb0\\xe5\\x9d\\x80</td>\\n                                                        <td>\\xe7\\xab\\xaf\\xe5\\x8f\\xa3</td>\\n                                                        <td>\\xe7\\x9b\\xae\\xe6\\xa0\\x87\\xe5\\x9c\\xb0\\xe5\\x9d\\x80</td>\\n                                                        <td>\\xe7\\xab\\xaf\\xe5\\x8f\\xa3</td>\\n                                                        <td></td>\\n                                                    </tr>\\n                                                </table>\\n                                            </div>\\n                                        </div>\\n                                    </div>\\n                                </div>\\n                            </div>\\n                        </form>\\n                    </div>\\n                </div>\\n            </div>\\n\\n        </div>\\n        <div class="row IN_UDP">\\n            <div class="col-lg-12">\\n                <div class="ibox float-e-margins">\\n                    <div class="ibox-title">\\n                        <h5 id="udpoutside">\\xe5\\x87\\x86\\xe5\\x85\\xa5 - UDP\\xe6\\x8e\\x88\\xe4\\xbf\\xa1\\xe8\\xae\\xbf\\xe9\\x97\\xae\\n                            <span class="label  pull-right status"></span>\\n                        </h5>\\n\\n                        <div class="ibox-tools">\\n                            <button class="collapse-link">\\n                                <i class="fa fa-chevron-up"></i>\\n                            </button>\\n                            <button title="\\xe5\\x90\\xaf\\xe7\\x94\\xa8" href="#" class=" startorstop">\\n                                <i class="fa fa-play"></i>\\n                            </button>\\n\\n                            <button title="\\xe5\\x81\\x9c\\xe7\\x94\\xa8" href="#" class=" startorstop">\\n                                <i class="fa fa-stop "></i>\\n                            </button>\\n\\n\\n                        </div>\\n                    </div>\\n\\n                    <div class="ibox-content">\\n                        <form class="form-horizontal m-t-md" action="#">\\n                            <div class="form-group ">\\n                                <div class="row ">\\n                                    <div class="col-xs-10 col-lg-offset-1 ">\\n                                        <div class="panel panel-default">\\n                                            <div class="panel-heading">\\xe7\\xad\\x96\\xe7\\x95\\xa5\\xe8\\xae\\xbe\\xe7\\xbd\\xae\\n                                                <button class="btn btn-primary   gapline-add" type="button"><i\\n                                                        class="fa fa-plus"></i> \\xe6\\xb7\\xbb\\xe5\\x8a\\xa0\\xe7\\xad\\x96\\xe7\\x95\\xa5\\n                                                </button>\\n                                            </div>\\n                                            <div class="panel-body ">\\n                                                <table class="table  table-striped  table-condensed tcpinside">\\n                                                    <tr>\\n                                                        <td></td>\\n                                                        <td>\\xe5\\x90\\x8d\\xe7\\xa7\\xb0</td>\\n                                                        <td>\\xe4\\xbb\\xa3\\xe7\\x90\\x86\\xe5\\x9c\\xb0\\xe5\\x9d\\x80</td>\\n                                                        <td>\\xe7\\xab\\xaf\\xe5\\x8f\\xa3</td>\\n                                                        <td>\\xe7\\x9b\\xae\\xe6\\xa0\\x87\\xe5\\x9c\\xb0\\xe5\\x9d\\x80</td>\\n                                                        <td>\\xe7\\xab\\xaf\\xe5\\x8f\\xa3</td>\\n                                                        <td></td>\\n                                                    </tr>\\n                                                </table>\\n                                            </div>\\n                                        </div>\\n                                    </div>\\n                                </div>\\n                            </div>\\n                        </form>\\n                    </div>\\n                </div>\\n            </div>\\n\\n        </div>\\n        <div class="row oa hs" id="hotbackup">\\n            <div class="col-lg-12">\\n                <div class="ibox float-e-margins">\\n                    <div class="ibox-title">\\n                        <h5 id="udpoutside">\\xe5\\xa4\\x96\\xe9\\x83\\xa8\\xe4\\xb8\\xbb\\xe6\\x9c\\xba\\xe7\\x83\\xad\\xe5\\xa4\\x87\\xe4\\xbb\\xbd\\n                            <span class="label  pull-right status"></span>\\n                        </h5>\\n\\n                        <div class="ibox-tools">\\n                            <button class="collapse-link">\\n                                <i class="fa fa-chevron-up"></i>\\n                            </button>\\n                            <button title="\\xe5\\x90\\xaf\\xe7\\x94\\xa8" href="#" class=" startorstop">\\n                                <i class="fa fa-play"></i>\\n                            </button>\\n\\n                            <button title="\\xe5\\x81\\x9c\\xe7\\x94\\xa8" href="#" class=" startorstop">\\n                                <i class="fa fa-stop "></i>\\n                            </button>\\n\\n\\n                        </div>\\n                    </div>\\n\\n                    <div class="ibox-content">\\n                        <form class="form-horizontal m-t-md" action="#">\\n                            <div class="form-group ">\\n                                <div class="row ">\\n                                    <div class="col-xs-10 col-lg-offset-1 ">\\n                                        <div class="panel panel-default">\\n                                            <div class="panel-heading">\\xe7\\x83\\xad\\xe5\\xa4\\x87\\xe4\\xbb\\xbd\\xe8\\xae\\xbe\\xe7\\xbd\\xae\\n                                                <button class="btn btn-primary   hsline-add" type="button"><i\\n                                                        class="fa fa-plus"></i> \\xe6\\xb7\\xbb\\xe5\\x8a\\xa0\\xe8\\x99\\x9a\\xe6\\x8b\\x9fIP\\n                                                </button>\\n                                            </div>\\n                                            <div class="panel-body ">\\n                                                <table class="table  table-striped  table-condensed tcpinside text-center">\\n\\n                                                    <tr>\\n                                                        <td></td>\\n                                                        <td>IP\\xe5\\x9c\\xb0\\xe5\\x9d\\x80</td>\\n                                                        <td>\\xe5\\xad\\x90\\xe7\\xbd\\x91\\xe6\\x8e\\xa9\\xe7\\xa0\\x81</td>\\n                                                        <td>\\xe7\\xbb\\x84\\xe5\\x8f\\xb7(\\xe4\\xb8\\xbb\\xe5\\xa4\\x87\\xe6\\x9c\\xba\\xe7\\xa1\\xae\\xe4\\xbf\\x9d\\xe7\\x9b\\xb8\\xe5\\x90\\x8c)</td>\\n                                                        <td>\\xe4\\xb8\\xbb</td>\\n                                                        <td>\\xe5\\x90\\xaf\\xe7\\x94\\xa8</td>\\n                                                        <td></td>\\n                                                    </tr>\\n                                                </table>\\n                                            </div>\\n                                        </div>\\n                                    </div>\\n                                </div>\\n                            </div>\\n                        </form>\\n                    </div>\\n                </div>\\n            </div>\\n\\n        </div>\\n        <div class="row ia hs">\\n            <div class="col-lg-12">\\n                <div class="ibox float-e-margins">\\n                    <div class="ibox-title">\\n                        <h5 id="udpoutside">\\xe5\\x86\\x85\\xe9\\x83\\xa8\\xe4\\xb8\\xbb\\xe6\\x9c\\xba\\xe7\\x83\\xad\\xe5\\xa4\\x87\\xe4\\xbb\\xbd\\n                            <span class="label  pull-right status"></span>\\n                        </h5>\\n\\n                        <div class="ibox-tools">\\n                            <button class="collapse-link">\\n                                <i class="fa fa-chevron-up"></i>\\n                            </button>\\n                            <button title="\\xe5\\x90\\xaf\\xe7\\x94\\xa8" href="#" class=" startorstop">\\n                                <i class="fa fa-play"></i>\\n                            </button>\\n\\n                            <button title="\\xe5\\x81\\x9c\\xe7\\x94\\xa8" href="#" class=" startorstop">\\n                                <i class="fa fa-stop "></i>\\n                            </button>\\n\\n\\n                        </div>\\n                    </div>\\n\\n                    <div class="ibox-content">\\n                        <form class="form-horizontal m-t-md" action="#">\\n                            <div class="form-group ">\\n                                <div class="row ">\\n                                    <div class="col-xs-10 col-lg-offset-1 ">\\n                                        <div class="panel panel-default">\\n                                            <div class="panel-heading">\\xe7\\x83\\xad\\xe5\\xa4\\x87\\xe4\\xbb\\xbd\\xe8\\xae\\xbe\\xe7\\xbd\\xae\\n                                                <button class="btn btn-primary   hsline-add" type="button"><i\\n                                                        class="fa fa-plus"></i> \\xe6\\xb7\\xbb\\xe5\\x8a\\xa0\\xe8\\x99\\x9a\\xe6\\x8b\\x9fIP\\n                                                </button>\\n                                            </div>\\n                                            <div class="panel-body ">\\n                                                <table class="table  table-striped  table-condensed tcpinside text-center">\\n\\n                                                    <tr>\\n                                                        <td></td>\\n                                                        <td>IP\\xe5\\x9c\\xb0\\xe5\\x9d\\x80</td>\\n                                                        <td>\\xe5\\xad\\x90\\xe7\\xbd\\x91\\xe6\\x8e\\xa9\\xe7\\xa0\\x81</td>\\n                                                        <td>\\xe7\\xbb\\x84\\xe5\\x8f\\xb7(\\xe4\\xb8\\xbb\\xe5\\xa4\\x87\\xe6\\x9c\\xba\\xe7\\xa1\\xae\\xe4\\xbf\\x9d\\xe7\\x9b\\xb8\\xe5\\x90\\x8c)</td>\\n                                                        <td>\\xe4\\xb8\\xbb</td>\\n                                                        <td>\\xe5\\x90\\xaf\\xe7\\x94\\xa8</td>\\n                                                        <td></td>\\n                                                    </tr>\\n\\n                                                </table>\\n                                            </div>\\n                                        </div>\\n                                    </div>\\n                                </div>\\n                            </div>\\n                        </form>\\n                    </div>\\n                </div>\\n            </div>\\n\\n        </div>\\n        <div id="loginside" class="wrapper wrapper-content  animated fadeInRight">\\n            <div class="row">\\n                <div class="col-lg-12">\\n                    <div class="ibox">\\n                        <div class="ibox-title">\\n                            <h5>\\xe5\\x86\\x85\\xe7\\xbd\\x91\\xe6\\x9c\\xba\\xe6\\x97\\xa5\\xe5\\xbf\\x97\\xe6\\x9f\\xa5\\xe7\\x9c\\x8b</h5>\\n\\n                        </div>\\n                        <div class="ibox-content">\\n\\n                            <div class="m-b-lg">\\n                                <div class="m-t-md">\\n                                    <strong>\\xe6\\x89\\xbe\\xe5\\x88\\xb0 <code id="iacount">0</code>\\xe6\\x9d\\xa1 \\xe6\\x97\\xa5\\xe5\\xbf\\x97 .</strong>\\n\\n                                </div>\\n\\n                            </div>\\n\\n                            <div class="table-responsive">\\n                                <table class="table table-hover issue-tracker table-condensed table-striped">\\n                                    <tbody id="ialog">\\n\\n\\n                                    </tbody>\\n                                </table>\\n                            </div>\\n                        </div>\\n\\n                    </div>\\n                </div>\\n            </div>\\n        </div>\\n        <div id="logoutside" class="wrapper wrapper-content  animated fadeInRight">\\n            <div class="row">\\n                <div class="col-lg-12">\\n                    <div class="ibox">\\n                        <div class="ibox-title">\\n                            <h5>\\xe5\\xa4\\x96\\xe7\\xbd\\x91\\xe6\\x9c\\xba\\xe6\\x97\\xa5\\xe5\\xbf\\x97\\xe6\\x9f\\xa5\\xe7\\x9c\\x8b</h5>\\n\\n                        </div>\\n                        <div class="ibox-content">\\n\\n                            <div class="m-b-lg">\\n                                <div class="m-t-md">\\n                                    <strong>\\xe6\\x89\\xbe\\xe5\\x88\\xb0 <code id="oacount">0</code>\\xe6\\x9d\\xa1 \\xe6\\x97\\xa5\\xe5\\xbf\\x97 .</strong>\\n                                </div>\\n                            </div>\\n                            <div class="table-responsive">\\n                                <table class="table table-hover issue-tracker table-condensed table-striped">\\n                                    <tbody id="oalog">\\n\\n\\n                                    </tbody>\\n                                </table>\\n                            </div>\\n                        </div>\\n\\n                    </div>\\n                </div>\\n            </div>\\n        </div>\\n        <div id="authrule" class="wrapper wrapper-content  animated fadeInRight">\\n            <div class="row">\\n                <div class="col-lg-12">\\n                    <div class="ibox">\\n                        <div class="ibox-title">\\n                            <h5>\\xe8\\xae\\xa4\\xe8\\xaf\\x81\\xe8\\xa7\\x84\\xe5\\x88\\x99</h5>\\n\\n                        </div>\\n                        <div class="ibox-content">\\n\\n                            <div class="m-b-lg">\\n                                <div class="m-t-md">\\n                                    <strong>\\xe8\\xae\\xa4\\xe8\\xaf\\x81\\xe8\\xa7\\x84\\xe5\\x88\\x99\\xe5\\xb7\\xb2\\xe7\\xbb\\x8f\\xe5\\xbc\\x80\\xe5\\x90\\xaf</strong>\\n                                </div>\\n                            </div>\\n                            <div class="table-responsive">\\n                                <table class="table table-hover issue-tracker table-condensed table-striped">\\n                                    <tbody id="oalog">\\n\\n\\n                                    </tbody>\\n                                </table>\\n                            </div>\\n                        </div>\\n\\n                    </div>\\n                </div>\\n            </div>\\n        </div>\\n\\n        <div class="footer">\\n            <div class="pull-right">\\n                <a class="btn btn-primary" href="#top">\\xe5\\x9b\\x9e\\xe5\\x88\\xb0\\xe9\\xa1\\xb6\\xe7\\xab\\xaf</a>\\n                <button class="btn btn-primary save">\\xe4\\xbf\\x9d\\xe5\\xad\\x98</button>\\n                <button class="btn btn-warning" onclick="gap_reload()">\\xe9\\x87\\x8d\\xe5\\x90\\xaf</button>\\n                <button class="btn btn-warning" onclick="gap_stop()">\\xe5\\x85\\xb3\\xe6\\x9c\\xba</button>\\n            </div>\\n            <div class=" pull-right form-inline" style="margin:  0 5px 0 5px">\\n                <div class="form-group">\\n                    <label for="oldpass">\\xe6\\x97\\xa7\\xe5\\xaf\\x86\\xe7\\xa0\\x81 </label>\\n                    <input type="password" class="form-control" id="oldpass" placeholder="">\\n                </div>\\n                <div class="form-group">\\n                    <label for="newpass1">\\xe6\\x96\\xb0\\xe5\\xaf\\x86\\xe7\\xa0\\x81 </label>\\n                    <input type="password" class="form-control" id="newpass1"\\n                           placeholder="">\\n                </div>\\n                <div class="form-group">\\n                    <label for="newpass2">\\xe9\\x87\\x8d\\xe5\\xa4\\x8d\\xe6\\x96\\xb0\\xe5\\xaf\\x86\\xe7\\xa0\\x81 </label>\\n                    <input type="password" class="form-control" id="newpass2"\\n                           placeholder="">\\n                </div>\\n            </div>\\n            <div>\\n                <strong>\\xe7\\x89\\x88\\xe6\\x9d\\x83\\xe6\\x89\\x80\\xe6\\x9c\\x89</strong> \\xe4\\xb8\\x8a\\xe6\\xb5\\xb7\\xe4\\xb8\\xad\\xe7\\xbd\\x91\\xe7\\xbd\\x91\\xe7\\xbb\\x9c\\xe5\\xae\\x89\\xe5\\x85\\xa8\\xe6\\x8a\\x80\\xe6\\x9c\\xaf\\xe6\\x9c\\x89\\xe9\\x99\\x90\\xe5\\x85\\xac\\xe5\\x8f\\xb8 &copy; 2014-2015\\n            </div>\\n        </div>\\n    </div>\\n</div>\\n\\n\\n<!-- Mainly scripts -->\\n<script src="\', escape=False)'
p105
sI20
S"response.write(URL('static','js/jquery-2.1.1.js'))"
p106
sI21
S'response.write(\'"></script>\\n<script src="\', escape=False)'
p107
sI22
S"response.write(URL('static','js/bootstrap.min.js'))"
p108
sI23
S'response.write(\'"></script>\\n<script src="\', escape=False)'
p109
sI24
S"response.write(URL('static','js/plugins/metisMenu/jquery.metisMenu.js'))"
p110
sI25
S'response.write(\'"></script>\\n<script src="\', escape=False)'
p111
sI26
S"response.write(URL('static','js/plugins/slimscroll/jquery.slimscroll.min.js'))"
p112
sI27
S'response.write(\'"></script>\\n<script src="\', escape=False)'
p113
sI28
S"response.write(URL('static','js/plugins/jasny/jasny-bootstrap.min.js'))"
p114
ssg83
S'()'
p115
sg85
S'<module>'
p116
sasS'pyver'
p117
S'Python 2.7.10: /System/Library/Frameworks/Python.framework/Versions/2.7/Resources/Python.app/Contents/MacOS/Python (prefix: /System/Library/Frameworks/Python.framework/Versions/2.7)'
p118
sS'session'
p119
g57
(S's:\x01\x00\x00<div><table><tr><td style="font-weight:bold;vertical-align:top;">last_orderby</td><td style="vertical-align:top;">:</td><td><div>None</div></td></tr><tr><td style="font-weight:bold;vertical-align:top;">last_query</td><td style="vertical-align:top;">:</td><td><div>db.auth_user.id&gt;0</div></td></tr></table></div>'
tRp120
sS'etype'
p121
S"<type 'exceptions.NameError'>"
p122
sS'date'
p123
S'Fri Aug 12 11:04:51 2016'
p124
sS'response'
p125
g57
(S's\x04\x1b\x00\x00<div><table><tr><td style="font-weight:bold;vertical-align:top;">body</td><td style="vertical-align:top;">:</td><td><div>&lt;cStringIO.StringO object at 0x1134777d8&gt;</div></td></tr><tr><td style="font-weight:bold;vertical-align:top;">cookies</td><td style="vertical-align:top;">:</td><td><div><table><tr><td style="font-weight:bold;vertical-align:top;">session_id_gap2py</td><td style="vertical-align:top;">:</td><td><div>127.0.0.1-48509dd2-3543-4f07-9888-086d381b683a<table><tr><td style="font-weight:bold;vertical-align:top;">comment</td><td style="vertical-align:top;">:</td><td><div></div></td></tr><tr><td style="font-weight:bold;vertical-align:top;">domain</td><td style="vertical-align:top;">:</td><td><div></div></td></tr><tr><td style="font-weight:bold;vertical-align:top;">expires</td><td style="vertical-align:top;">:</td><td><div></div></td></tr><tr><td style="font-weight:bold;vertical-align:top;">httponly</td><td style="vertical-align:top;">:</td><td><div></div></td></tr><tr><td style="font-weight:bold;vertical-align:top;">max-age</td><td style="vertical-align:top;">:</td><td><div></div></td></tr><tr><td style="font-weight:bold;vertical-align:top;">path</td><td style="vertical-align:top;">:</td><td><div>/</div></td></tr><tr><td style="font-weight:bold;vertical-align:top;">secure</td><td style="vertical-align:top;">:</td><td><div></div></td></tr><tr><td style="font-weight:bold;vertical-align:top;">version</td><td style="vertical-align:top;">:</td><td><div></div></td></tr></table></div></td></tr></table></div></td></tr><tr><td style="font-weight:bold;vertical-align:top;">delimiters</td><td style="vertical-align:top;">:</td><td><div><table><tr><td><div>{{</div></td></tr><tr><td><div>}}</div></td></tr></table></div></td></tr><tr><td style="font-weight:bold;vertical-align:top;">files</td><td style="vertical-align:top;">:</td><td><div><table></table></div></td></tr><tr><td style="font-weight:bold;vertical-align:top;">flash</td><td style="vertical-align:top;">:</td><td><div></div></td></tr><tr><td style="font-weight:bold;vertical-align:top;">form_label_separator</td><td style="vertical-align:top;">:</td><td><div></div></td></tr><tr><td style="font-weight:bold;vertical-align:top;">formstyle</td><td style="vertical-align:top;">:</td><td><div>bootstrap3_inline</div></td></tr><tr><td style="font-weight:bold;vertical-align:top;">generic_patterns</td><td style="vertical-align:top;">:</td><td><div><table><tr><td><div>*</div></td></tr></table></div></td></tr><tr><td style="font-weight:bold;vertical-align:top;">headers</td><td style="vertical-align:top;">:</td><td><div><table><tr><td style="font-weight:bold;vertical-align:top;">X-Powered-By</td><td style="vertical-align:top;">:</td><td><div>web2py</div></td></tr></table></div></td></tr><tr><td style="font-weight:bold;vertical-align:top;">menu</td><td style="vertical-align:top;">:</td><td><div><table><tr><td><div><table><tr><td><div>\xe7\xb4\xa2\xe5\xbc\x95</div></td></tr><tr><td><div>False</div></td></tr><tr><td><div>/gap2py/default/index</div></td></tr><tr><td><div><table></table></div></td></tr></table></div></td></tr></table></div></td></tr><tr><td style="font-weight:bold;vertical-align:top;">meta</td><td style="vertical-align:top;">:</td><td><div><table><tr><td style="font-weight:bold;vertical-align:top;">author</td><td style="vertical-align:top;">:</td><td><div>midnet &lt;-&gt;</div></td></tr><tr><td style="font-weight:bold;vertical-align:top;">description</td><td style="vertical-align:top;">:</td><td><div>-</div></td></tr><tr><td style="font-weight:bold;vertical-align:top;">keywords</td><td style="vertical-align:top;">:</td><td><div>-</div></td></tr></table></div></td></tr><tr><td style="font-weight:bold;vertical-align:top;">models_to_run</td><td style="vertical-align:top;">:</td><td><div><table><tr><td><div>^\\w+\\.py$</div></td></tr><tr><td><div>^index/\\w+\\.py$</div></td></tr><tr><td><div>^index/index/\\w+\\.py$</div></td></tr></table></div></td></tr><tr><td style="font-weight:bold;vertical-align:top;">postprocessing</td><td style="vertical-align:top;">:</td><td><div><table></table></div></td></tr><tr><td style="font-weight:bold;vertical-align:top;">session_client</td><td style="vertical-align:top;">:</td><td><div>127.0.0.1</div></td></tr><tr><td style="font-weight:bold;vertical-align:top;">session_cookie_compression_level</td><td style="vertical-align:top;">:</td><td><div>None</div></td></tr><tr><td style="font-weight:bold;vertical-align:top;">session_cookie_expires</td><td style="vertical-align:top;">:</td><td><div>None</div></td></tr><tr><td style="font-weight:bold;vertical-align:top;">session_data_name</td><td style="vertical-align:top;">:</td><td><div>session_data_gap2py</div></td></tr><tr><td style="font-weight:bold;vertical-align:top;">session_file</td><td style="vertical-align:top;">:</td><td><div>&lt;open file &#x27;/Users/zhulielie/PycharmProjects/gap2py/web2py/applications/gap2py/sessions/00c/093/127.0.0.1-48509dd2-3543-4f07-9888-086d381b683a&#x27;, mode &#x27;rb+&#x27; at 0x113522c90&gt;</div></td></tr><tr><td style="font-weight:bold;vertical-align:top;">session_filename</td><td style="vertical-align:top;">:</td><td><div>/Users/zhulielie/PycharmProjects/gap2py/web2py/applications/gap2py/sessions/127.0.0.1-48509dd2-3543-4f07-9888-086d381b683a</div></td></tr><tr><td style="font-weight:bold;vertical-align:top;">session_hash</td><td style="vertical-align:top;">:</td><td><div>083857171e5941846f48d7929afa1183</div></td></tr><tr><td style="font-weight:bold;vertical-align:top;">session_id</td><td style="vertical-align:top;">:</td><td><div>127.0.0.1-48509dd2-3543-4f07-9888-086d381b683a</div></td></tr><tr><td style="font-weight:bold;vertical-align:top;">session_id_name</td><td style="vertical-align:top;">:</td><td><div>session_id_gap2py</div></td></tr><tr><td style="font-weight:bold;vertical-align:top;">session_locked</td><td style="vertical-align:top;">:</td><td><div>True</div></td></tr><tr><td style="font-weight:bold;vertical-align:top;">session_masterapp</td><td style="vertical-align:top;">:</td><td><div>gap2py</div></td></tr><tr><td style="font-weight:bold;vertical-align:top;">session_new</td><td style="vertical-align:top;">:</td><td><div>False</div></td></tr><tr><td style="font-weight:bold;vertical-align:top;">session_storage_type</td><td style="vertical-align:top;">:</td><td><div>file</div></td></tr><tr><td style="font-weight:bold;vertical-align:top;">status</td><td style="vertical-align:top;">:</td><td><div>200</div></td></tr><tr><td style="font-weight:bold;vertical-align:top;">subtitle</td><td style="vertical-align:top;">:</td><td><div>\xe4\xb8\xad\xe7\xbd\x91\xe9\xa9\xb0\xe4\xba\x91</div></td></tr><tr><td style="font-weight:bold;vertical-align:top;">title</td><td style="vertical-align:top;">:</td><td><div>\xe4\xb8\xad\xe7\xbd\x91\xe7\xbd\x91\xe9\x97\xb8</div></td></tr><tr><td style="font-weight:bold;vertical-align:top;">view</td><td style="vertical-align:top;">:</td><td><div>index/index.html</div></td></tr></table></div>'
tRp126
sS'locals'
p127
(dp128
S'Service'
p129
S"<class 'gluon.tools.Service'>"
p130
sS'OBJECT'
p131
S"<class 'gluon.html.OBJECT'>"
p132
sS'SQLDB'
p133
S"<class 'pydal.base.DAL'>"
p134
sg119
S"<Storage {'last_orderby': None, 'last_query': 'd...ord]': ['86e5c0e9-ba85-4a85-b793-3b7846fd4e84']}>"
p135
sS'LINK'
p136
S"<class 'gluon.html.LINK'>"
p137
sS'BR'
p138
S"<class 'gluon.html.BR'>"
p139
sS'local_import'
p140
S'<function <lambda>>'
p141
sS'OPTGROUP'
p142
S"<class 'gluon.html.OPTGROUP'>"
p143
sS'__package__'
p144
S'None'
p145
sS'PRE'
p146
S"<class 'gluon.html.PRE'>"
p147
sS'IS_INT_IN_RANGE'
p148
S"<class 'gluon.validators.IS_INT_IN_RANGE'>"
p149
sS'IS_LOWER'
p150
S"<class 'gluon.validators.IS_LOWER'>"
p151
sS'IS_STRONG'
p152
S"<class 'gluon.validators.IS_STRONG'>"
p153
sS'cache'
p154
S'<gluon.cache.Cache object>'
p155
sS'IS_IN_DB'
p156
S"<class 'gluon.validators.IS_IN_DB'>"
p157
sS'TAG'
p158
S'<gluon.html.__TAG__ object>'
p159
sS'SQLField'
p160
S"<class 'pydal.objects.Field'>"
p161
sS'mail'
p162
S'<gluon.tools.Mail object>'
p163
sS'BODY'
p164
S"<class 'gluon.html.BODY'>"
p165
sS'IS_DATE_IN_RANGE'
p166
S"<class 'gluon.validators.IS_DATE_IN_RANGE'>"
p167
sS'IFRAME'
p168
S"<class 'gluon.html.IFRAME'>"
p169
sS'URL'
p170
S'<function URL>'
p171
sS'__file__'
p172
S"'/Users/zhulielie/PycharmProjects/gap2py/web2py/applications/gap2py/views/index/index.html'"
p173
sS'db'
p174
S'<DAL uri="sqlite://storage.sqlite">'
p175
sS'auth'
p176
S'<gluon.tools.Auth object>'
p177
sS'P'
S"<class 'gluon.html.P'>"
p178
sS'TFOOT'
p179
S"<class 'gluon.html.TFOOT'>"
p180
sS'XHTML'
p181
S"<class 'gluon.html.XHTML'>"
p182
sS'ON'
p183
S'True'
p184
sS'OL'
p185
S"<class 'gluon.html.OL'>"
p186
sS'TEXTAREA'
p187
S"<class 'gluon.html.TEXTAREA'>"
p188
sS'settings'
p189
S"<Storage {'layout_theme': 'Default', 'subtitle':...l_server': 'localhost', 'login_method': 'local'}>"
p190
sS'MENU'
p191
S"<class 'gluon.html.MENU'>"
p192
sS'IS_IMAGE'
p193
S"<class 'gluon.validators.IS_IMAGE'>"
p194
sS'EM'
p195
S"<class 'gluon.html.EM'>"
p196
sS'CODE'
p197
S"<class 'gluon.html.CODE'>"
p198
sS'HTTP'
p199
S"<class 'gluon.http.HTTP'>"
p200
sS'HR'
p201
S"<class 'gluon.html.HR'>"
p202
sS'IS_DATETIME'
p203
S"<class 'gluon.validators.IS_DATETIME'>"
p204
sS'Storage'
p205
S"<class 'gluon.storage.Storage'>"
p206
sS'STYLE'
p207
S"<class 'gluon.html.STYLE'>"
p208
sS'LABEL'
p209
S"<class 'gluon.html.LABEL'>"
p210
sS'CLEANUP'
p211
S"<class 'gluon.validators.CLEANUP'>"
p212
sS'plugins'
p213
S'<gluon.tools.PluginManager object>'
p214
sS'SELECT'
p215
S"<class 'gluon.html.SELECT'>"
p216
sS'CENTER'
p217
S"<class 'gluon.html.CENTER'>"
p218
sS'Auth'
p219
S"<class 'gluon.tools.Auth'>"
p220
sS'__builtins__'
p221
S"{'ArithmeticError': <type 'exceptions.ArithmeticError'>, 'AssertionError': <type 'exceptions.AssertionError'>, 'AttributeError': <type 'exceptions.AttributeError'>, 'BaseException': <type 'exceptions.BaseException'>, 'BufferError': <type 'exceptions.BufferError'>, 'BytesWarning': <type 'exceptions.BytesWarning'>, 'DeprecationWarning': <type 'exceptions.DeprecationWarning'>, 'EOFError': <type 'exceptions.EOFError'>, 'Ellipsis': Ellipsis, 'EnvironmentError': <type 'exceptions.EnvironmentError'>, ...}"
p222
sS'HTML'
p223
S"<class 'gluon.html.HTML'>"
p224
sS'SQLFORM'
p225
S"<class 'gluon.sqlhtml.SQLFORM'>"
p226
sS'LOAD'
p227
S'<function LOAD>'
p228
sS'redirect'
p229
S'<function redirect>'
p230
sS'FIELDSET'
p231
S"<class 'gluon.html.FIELDSET'>"
p232
sS'IS_EQUAL_TO'
p233
S"<class 'gluon.validators.IS_EQUAL_TO'>"
p234
sS'embed64'
p235
S'<function embed64>'
p236
sS'IS_LIST_OF'
p237
S"<class 'gluon.validators.IS_LIST_OF'>"
p238
sS'INPUT'
p239
S"<class 'gluon.html.INPUT'>"
p240
sS'EMBED'
p241
S"<class 'gluon.html.EMBED'>"
p242
sS'FORM'
p243
S"<class 'gluon.html.FORM'>"
p244
sS'myconf'
p245
S"{'forms': {'formstyle': 'bootstrap3_inline', 'se...': {'names': 'localhost:*, 127.0.0.1:*, *:*, *'}}"
p246
sS'H2'
p247
S"<class 'gluon.html.H2'>"
p248
sS'H3'
p249
S"<class 'gluon.html.H3'>"
p250
sS'AppConfig'
p251
S'<function AppConfig>'
p252
sS'H1'
p253
S"<class 'gluon.html.H1'>"
p254
sS'H6'
p255
S"<class 'gluon.html.H6'>"
p256
sS'H4'
p257
S"<class 'gluon.html.H4'>"
p258
sS'H5'
p259
S"<class 'gluon.html.H5'>"
p260
sS'UL'
p261
S"<class 'gluon.html.UL'>"
p262
sS'IS_UPPER'
p263
S"<class 'gluon.validators.IS_UPPER'>"
p264
sS'xmlescape'
p265
S'<function xmlescape>'
p266
sS'IS_TIME'
p267
S"<class 'gluon.validators.IS_TIME'>"
p268
sS'OPTION'
p269
S"<class 'gluon.html.OPTION'>"
p270
sS'TITLE'
p271
S"<class 'gluon.html.TITLE'>"
p272
sS'CRYPT'
p273
S"<class 'gluon.validators.CRYPT'>"
p274
sS'IS_EMPTY_OR'
p275
S"<class 'gluon.validators.IS_EMPTY_OR'>"
p276
sS'MARKMIN'
p277
S"<class 'gluon.html.MARKMIN'>"
p278
sS'__name__'
p279
S"'__restricted__'"
p280
sS'message'
p281
S"'hello from index.py'"
p282
sS'STRONG'
p283
S"<class 'gluon.html.STRONG'>"
p284
sS'COL'
p285
S"<class 'gluon.html.COL'>"
p286
sS'service'
p287
S'<gluon.tools.Service object>'
p288
sS'SCRIPT'
p289
S"<class 'gluon.html.SCRIPT'>"
p290
sS'TABLE'
p291
S"<class 'gluon.html.TABLE'>"
p292
sS'IS_IPV4'
p293
S"<class 'gluon.validators.IS_IPV4'>"
p294
sS'IS_LENGTH'
p295
S"<class 'gluon.validators.IS_LENGTH'>"
p296
sS'IS_IPV6'
p297
S"<class 'gluon.validators.IS_IPV6'>"
p298
sS'XML'
p299
S"<class 'gluon.html.XML'>"
p300
sS'B'
S"<class 'gluon.html.B'>"
p301
sS'IMG'
p302
S"<class 'gluon.html.IMG'>"
p303
sS'SQLTABLE'
p304
S"<class 'gluon.sqlhtml.SQLTABLE'>"
p305
sS'IS_MATCH'
p306
S"<class 'gluon.validators.IS_MATCH'>"
p307
sS'IS_ALPHANUMERIC'
p308
S"<class 'gluon.validators.IS_ALPHANUMERIC'>"
p309
sS'SPAN'
p310
S"<class 'gluon.html.SPAN'>"
p311
sS'IS_JSON'
p312
S"<class 'gluon.validators.IS_JSON'>"
p313
sS'IS_IPADDRESS'
p314
S"<class 'gluon.validators.IS_IPADDRESS'>"
p315
sS'IS_SLUG'
p316
S"<class 'gluon.validators.IS_SLUG'>"
p317
sS'BEAUTIFY'
p318
S"<class 'gluon.html.BEAUTIFY'>"
p319
sS'META'
p320
S"<class 'gluon.html.META'>"
p321
sS'BUTTON'
p322
S"<class 'gluon.html.BUTTON'>"
p323
sS'IS_DATE'
p324
S"<class 'gluon.validators.IS_DATE'>"
p325
sS'IS_EMAIL'
p326
S"<class 'gluon.validators.IS_EMAIL'>"
p327
sS'IS_NOT_EMPTY'
p328
S"<class 'gluon.validators.IS_NOT_EMPTY'>"
p329
sS'IS_FLOAT_IN_RANGE'
p330
S"<class 'gluon.validators.IS_FLOAT_IN_RANGE'>"
p331
sS'TBODY'
p332
S"<class 'gluon.html.TBODY'>"
p333
sS'CAT'
p334
S"<class 'gluon.html.CAT'>"
p335
sS'Field'
p336
S"<class 'pydal.objects.Field'>"
p337
sS'IS_LIST_OF_EMAILS'
p338
S"<class 'gluon.validators.IS_LIST_OF_EMAILS'>"
p339
sS'DIV'
p340
S"<class 'gluon.html.DIV'>"
p341
sS'LEGEND'
p342
S"<class 'gluon.html.LEGEND'>"
p343
sS'COLGROUP'
p344
S"<class 'gluon.html.COLGROUP'>"
p345
sS'DAL'
p346
S"<class 'pydal.base.DAL'>"
p347
sS'ASSIGNJS'
p348
S'<function ASSIGNJS>'
p349
sS'TR'
p350
S"<class 'gluon.html.TR'>"
p351
sS'LI'
p352
S"<class 'gluon.html.LI'>"
p353
sS'TH'
p354
S"<class 'gluon.html.TH'>"
p355
sS'TD'
p356
S"<class 'gluon.html.TD'>"
p357
sS'PluginManager'
p358
S"<class 'gluon.tools.PluginManager'>"
p359
sS'IS_URL'
p360
S"<class 'gluon.validators.IS_URL'>"
p361
sS'A'
S"<class 'gluon.html.A'>"
p362
sS'HEAD'
p363
S"<class 'gluon.html.HEAD'>"
p364
sS'IS_DATETIME_IN_RANGE'
p365
S"<class 'gluon.validators.IS_DATETIME_IN_RANGE'>"
p366
sS'populate'
p367
S'<function populate>'
p368
sS'I'
S"<class 'gluon.html.I'>"
p369
sS'IS_NOT_IN_DB'
p370
S"<class 'gluon.validators.IS_NOT_IN_DB'>"
p371
sg125
S"<Storage {'body': <cStringIO.StringO object at 0...da> at 0x1149d8cf8>, 'view': 'index/index.html'}>"
p372
sS'THEAD'
p373
S"<class 'gluon.html.THEAD'>"
p374
sS'ANY_OF'
p375
S"<class 'gluon.validators.ANY_OF'>"
p376
sS'IS_NULL_OR'
p377
S"<class 'gluon.validators.IS_EMPTY_OR'>"
p378
sg56
S"<Storage {'_vars': None, 'function': 'index', 'c...armProjects/gap2py/web2py/applications/gap2py/'}>"
p379
sS'IS_EXPR'
p380
S"<class 'gluon.validators.IS_EXPR'>"
p381
sS'T'
S'<gluon.languages.translator object>'
p382
sS'IS_IN_SET'
p383
S"<class 'gluon.validators.IS_IN_SET'>"
p384
sS'IS_UPLOAD_FILENAME'
p385
S"<class 'gluon.validators.IS_UPLOAD_FILENAME'>"
p386
sS'TT'
p387
S"<class 'gluon.html.TT'>"
p388
sS'IS_DECIMAL_IN_RANGE'
p389
S"<class 'gluon.validators.IS_DECIMAL_IN_RANGE'>"
p390
sssS'traceback'
p391
S'Traceback (most recent call last):\n  File "/Users/zhulielie/PycharmProjects/gap2py/web2py/gluon/restricted.py", line 227, in restricted\n    exec ccode in environment\n  File "/Users/zhulielie/PycharmProjects/gap2py/web2py/applications/gap2py/views/index/index.html", line 18, in <module>\n    <link href="{{=URL(\'static\',\'font-awesome/css/font-awesome.css\') }}" rel="stylesheet">\nNameError: name \'username\' is not defined\n'
p392
s.