(dp1
S'output'
p2
S"<type 'exceptions.NameError'> name 'mash' is not defined"
p3
sS'layer'
p4
S'/usr/nc-home/gap2py/web2py/applications/gap2py/views/license/index.html'
p5
sS'code'
p6
S'response.write(\'<!DOCTYPE html>\\n<html>\\n<head>\\n    <title>\\xe4\\xb8\\xad\\xe7\\xbd\\x91\\xe9\\xa9\\xb0\\xe4\\xba\\x91\\xe9\\x98\\xb2\\xe7\\x81\\xab\\xe5\\xa2\\x99</title>\\n    <meta http-equiv="X-UA-Compatible" content="IE=edge">\\n    <meta name="renderer" content="webkit">\\n    <meta http-equiv="Content-Type" content="text/html; charset=utf-8"/>\\n    <meta name="viewport" content="width=device-width, initial-scale=1.0">\\n    <link rel="stylesheet" href="/static/css/pintuer.css">\\n    <style type="text/css">\\n\\n        body {\\n\\n            color: #2b2b2b;\\n            background-image: url(\', escape=False)\nresponse.write(URL(\'static\',\'img/bg.jpg\'))\nresponse.write(\' );\\n        }\\n    </style>\\n    <script src="/static/js/jquery.js"></script>\\n    <script src="/static/js/pintuer.js"></script>\\n    <script src="/static/js/respond.js"></script>\\n    <script type="text/javascript">\\n        $(function () {\\n            var action = "reload";\\n\\n            $("#" + action).on(\\\'click\\\', function () {\\n                //noinspection UnterminatedStatementJS\\n                console.log(action);\\n                $.get("/lc_reload/", function (result) {\\n                });\\n            });\\n            action = "cancle";\\n            $("#" + action).on(\\\'click\\\', function () {\\n                console.log(action);\\n\\n                $("#mydialog").hide()\\n            });\\n        });\\n    </script>\\n</head>\\n<body>\\n<div class="layout doc-header fixed">\\n    <div class="layout doc-toper">\\n        <div class="container">\\n            <div class="line">\\n                <div class="x8 fadein-left">\\xe6\\xac\\xa2\\xe8\\xbf\\x8e\\xe4\\xbd\\xbf\\xe7\\x94\\xa8\\xe4\\xb8\\xad\\xe7\\xbd\\x91\\xe9\\xa9\\xb0\\xe4\\xba\\x91\\xe7\\xbd\\x91\\xe9\\x97\\xb8WEB\\xe7\\x95\\x8c\\xe9\\x9d\\xa2</div>\\n                <div class="x4 text-right fadein-right">\\xe8\\xae\\xbf\\xe9\\x97\\xae<a target="_blank" href="http://midnet.com.cn/">midnet</a>\\n                </div>\\n            </div>\\n        </div>\\n    </div>\\n\\n</div>\\n\\n<br>\\n\\n<div class="container">\\n\\n\\n    <div class="panel">\\n        <div class="panel-head bg-green"><h4>\\xe8\\xaf\\xb7\\xe5\\x9c\\xa8\\xe4\\xb8\\x8b\\xe6\\x96\\xb9\\xe7\\x9a\\x84\\xe8\\xbe\\x93\\xe5\\x85\\xa5\\xe6\\xa1\\x86\\xe4\\xb8\\xad\\xe8\\xbe\\x93\\xe5\\x85\\xa5License</h4></div>\\n        <div class="panel-body" style="height: 600px">\\n            <blockquote class="quote border-green doc-quote"><strong>\\xe7\\x94\\x9f\\xe6\\x88\\x90\\xe7\\xa0\\x81</strong>\\n                \', escape=False)\nmash\nresponse.write(\'\\n            </blockquote>\\n            <br>\\n\\n            <div>\\n                <form action="" class="" method="post">\\n\\n                    <!--suppress HtmlFormInputWithoutLabel -->\\n                    <textarea rows="5" class="input" style="height: 300px" name="license" class="radius"></textarea>\\n                    <br>\\n                    <button class="button bg-green button-big button-block float-right">\\xe6\\x8f\\x90\\xe4\\xba\\xa4</button>\\n\\n                </form>\\n            </div>\\n        </div>\\n    </div>\\n\\n\\n</div>\\n<br>\\n\\n<div class="container">\\n    <div class="alert alert-yellow border border-small border-dashed "><span\\n            class="close rotate-hover"></span><strong>\\n\\n        {% if status %}\\n            \', escape=False)\nstatus\nresponse.write(\'\\n        {% else %}\\n            \\xe6\\xb3\\xa8\\xe6\\x84\\x8f\\n        {% endif %}\\n\\n\\n    </strong></div>\\n    <br>\\n    <button class="button button-big bg-green dialogs float-right" data-toggle="click" data-target="#mydialog"\\n            data-mask="1"\\n            data-width="50%">\\xe9\\x87\\x8d\\xe5\\x90\\xaf\\xe7\\xbd\\x91\\xe9\\x97\\xb8\\n    </button>\\n\\n    <a href="/" class="button button-big bg-green dialogs float-left" data-toggle="click" data-target="#mydialog"\\n       data-mask="1"\\n       data-width="50%">\\xe5\\x88\\xb7\\xe6\\x96\\xb0\\n    </a>\\n\\n\\n    <div id="mydialog">\\n        <div class="dialog">\\n            <div class="dialog-head">\\n                <span class="close rotate-hover"></span>\\n                <strong>\\xe7\\xa1\\xae\\xe5\\xae\\x9a</strong>\\n            </div>\\n            <div class="dialog-body">\\n                \\xe7\\xa1\\xae\\xe5\\xae\\x9a\\xe8\\xa6\\x81\\xe9\\x87\\x8d\\xe5\\x90\\xaf\\xe7\\xbd\\x91\\xe9\\x97\\xb8\\xe5\\x90\\x97?\\n            </div>\\n            <div class="dialog-foot">\\n                <button id=\\\'cancle\\\' class="button dialog-close" onclick="console.log(\\\'cancle\\\')">\\xe5\\x8f\\x96\\xe6\\xb6\\x88</button>\\n                <button id="reload" class="button bg-green dialog-close "\\n                        onclick="console.log(\\\'reload\\\');$.get(\\\'/lc_reload/\\\', function (result) {});">\\xe7\\xa1\\xae\\xe8\\xae\\xa4\\n                </button>\\n            </div>\\n        </div>\\n    </div>\\n</div>\\n\\n</body>\\n</html>\\n\', escape=False)'
p7
sS'snapshot'
p8
(dp9
S'exception'
p10
(dp11
S'__hash__'
p12
S"<method-wrapper '__hash__' of exceptions.NameError object>"
p13
sS'__setattr__'
p14
S"<method-wrapper '__setattr__' of exceptions.NameError object>"
p15
sS'__reduce_ex__'
p16
S'<built-in method __reduce_ex__ of exceptions.NameError object>'
p17
sS'__getslice__'
p18
S"<method-wrapper '__getslice__' of exceptions.NameError object>"
p19
sS'__getitem__'
p20
S"<method-wrapper '__getitem__' of exceptions.NameError object>"
p21
sS'__setstate__'
p22
S'<built-in method __setstate__ of exceptions.NameError object>'
p23
sS'__reduce__'
p24
S'<built-in method __reduce__ of exceptions.NameError object>'
p25
sS'__str__'
p26
S"<method-wrapper '__str__' of exceptions.NameError object>"
p27
sS'__format__'
p28
S'<built-in method __format__ of exceptions.NameError object>'
p29
sS'__getattribute__'
p30
S"<method-wrapper '__getattribute__' of exceptions.NameError object>"
p31
sS'__class__'
p32
S"<type 'exceptions.NameError'>"
p33
sS'__unicode__'
p34
S'<built-in method __unicode__ of exceptions.NameError object>'
p35
sS'__delattr__'
p36
S"<method-wrapper '__delattr__' of exceptions.NameError object>"
p37
sS'__subclasshook__'
p38
S'<built-in method __subclasshook__ of type object>'
p39
sS'__repr__'
p40
S"<method-wrapper '__repr__' of exceptions.NameError object>"
p41
sS'args'
p42
S'("name \'mash\' is not defined",)'
p43
sS'__dict__'
p44
S'{}'
p45
sS'__sizeof__'
p46
S'<built-in method __sizeof__ of exceptions.NameError object>'
p47
sS'__doc__'
p48
S"'Name not found globally.'"
p49
sS'__init__'
p50
S"<method-wrapper '__init__' of exceptions.NameError object>"
p51
sS'__new__'
p52
S'<built-in method __new__ of type object>'
p53
ssS'evalue'
p54
S"name 'mash' is not defined"
p55
sS'request'
p56
cgluon.html
XML_unpickle
p57
(S's\xf5[\x00\x00<div><table><tr><td style="font-weight:bold;vertical-align:top;">ajax</td><td style="vertical-align:top;">:</td><td><div>False</div></td></tr><tr><td style="font-weight:bold;vertical-align:top;">application</td><td style="vertical-align:top;">:</td><td><div>gap2py</div></td></tr><tr><td style="font-weight:bold;vertical-align:top;">args</td><td style="vertical-align:top;">:</td><td><div><table></table></div></td></tr><tr><td style="font-weight:bold;vertical-align:top;">cid</td><td style="vertical-align:top;">:</td><td><div>None</div></td></tr><tr><td style="font-weight:bold;vertical-align:top;">client</td><td style="vertical-align:top;">:</td><td><div>192.168.2.160</div></td></tr><tr><td style="font-weight:bold;vertical-align:top;">controller</td><td style="vertical-align:top;">:</td><td><div>license</div></td></tr><tr><td style="font-weight:bold;vertical-align:top;">cookies</td><td style="vertical-align:top;">:</td><td><div><table><tr><td style="font-weight:bold;vertical-align:top;">session</td><td style="vertical-align:top;">:</td><td><div>eyJ1c2VyIjp7IiBiIjoiWVdSdGFXND0ifX0.CpC1uw.1vcuU5lTEJwtzRBMJtWYXZFqIT4<table><tr><td style="font-weight:bold;vertical-align:top;">comment</td><td style="vertical-align:top;">:</td><td><div></div></td></tr><tr><td style="font-weight:bold;vertical-align:top;">domain</td><td style="vertical-align:top;">:</td><td><div></div></td></tr><tr><td style="font-weight:bold;vertical-align:top;">expires</td><td style="vertical-align:top;">:</td><td><div></div></td></tr><tr><td style="font-weight:bold;vertical-align:top;">httponly</td><td style="vertical-align:top;">:</td><td><div></div></td></tr><tr><td style="font-weight:bold;vertical-align:top;">max-age</td><td style="vertical-align:top;">:</td><td><div></div></td></tr><tr><td style="font-weight:bold;vertical-align:top;">path</td><td style="vertical-align:top;">:</td><td><div></div></td></tr><tr><td style="font-weight:bold;vertical-align:top;">secure</td><td style="vertical-align:top;">:</td><td><div></div></td></tr><tr><td style="font-weight:bold;vertical-align:top;">version</td><td style="vertical-align:top;">:</td><td><div></div></td></tr></table></div></td></tr><tr><td style="font-weight:bold;vertical-align:top;">session_id_admin</td><td style="vertical-align:top;">:</td><td><div>192.168.2.160-0c4e372e-40d1-429f-97e9-119f28bca68a<table><tr><td style="font-weight:bold;vertical-align:top;">comment</td><td style="vertical-align:top;">:</td><td><div></div></td></tr><tr><td style="font-weight:bold;vertical-align:top;">domain</td><td style="vertical-align:top;">:</td><td><div></div></td></tr><tr><td style="font-weight:bold;vertical-align:top;">expires</td><td style="vertical-align:top;">:</td><td><div></div></td></tr><tr><td style="font-weight:bold;vertical-align:top;">httponly</td><td style="vertical-align:top;">:</td><td><div></div></td></tr><tr><td style="font-weight:bold;vertical-align:top;">max-age</td><td style="vertical-align:top;">:</td><td><div></div></td></tr><tr><td style="font-weight:bold;vertical-align:top;">path</td><td style="vertical-align:top;">:</td><td><div></div></td></tr><tr><td style="font-weight:bold;vertical-align:top;">secure</td><td style="vertical-align:top;">:</td><td><div></div></td></tr><tr><td style="font-weight:bold;vertical-align:top;">version</td><td style="vertical-align:top;">:</td><td><div></div></td></tr></table></div></td></tr><tr><td style="font-weight:bold;vertical-align:top;">session_id_gap2py</td><td style="vertical-align:top;">:</td><td><div>192.168.2.160-c448d3ca-ec99-4bba-a9ab-8b15614e27e1<table><tr><td style="font-weight:bold;vertical-align:top;">comment</td><td style="vertical-align:top;">:</td><td><div></div></td></tr><tr><td style="font-weight:bold;vertical-align:top;">domain</td><td style="vertical-align:top;">:</td><td><div></div></td></tr><tr><td style="font-weight:bold;vertical-align:top;">expires</td><td style="vertical-align:top;">:</td><td><div></div></td></tr><tr><td style="font-weight:bold;vertical-align:top;">httponly</td><td style="vertical-align:top;">:</td><td><div></div></td></tr><tr><td style="font-weight:bold;vertical-align:top;">max-age</td><td style="vertical-align:top;">:</td><td><div></div></td></tr><tr><td style="font-weight:bold;vertical-align:top;">path</td><td style="vertical-align:top;">:</td><td><div></div></td></tr><tr><td style="font-weight:bold;vertical-align:top;">secure</td><td style="vertical-align:top;">:</td><td><div></div></td></tr><tr><td style="font-weight:bold;vertical-align:top;">version</td><td style="vertical-align:top;">:</td><td><div></div></td></tr></table></div></td></tr></table></div></td></tr><tr><td style="font-weight:bold;vertical-align:top;">env</td><td style="vertical-align:top;">:</td><td><div><table><tr><td style="font-weight:bold;vertical-align:top;">HTTPS</td><td style="vertical-align:top;">:</td><td><div>on</div></td></tr><tr><td style="font-weight:bold;vertical-align:top;">HTTP_ACCEPT</td><td style="vertical-align:top;">:</td><td><div>text/html,application/xhtml+xml,application/xml;q=0.9,image/webp,*/*;q=0.8</div></td></tr><tr><td style="font-weight:bold;vertical-align:top;">HTTP_ACCEPT_ENCODING</td><td style="vertical-align:top;">:</td><td><div>gzip, deflate, sdch</div></td></tr><tr><td style="font-weight:bold;vertical-align:top;">HTTP_ACCEPT_LANGUAGE</td><td style="vertical-align:top;">:</td><td><div>zh-CN,zh;q=0.8</div></td></tr><tr><td style="font-weight:bold;vertical-align:top;">HTTP_CONNECTION</td><td style="vertical-align:top;">:</td><td><div>keep-alive</div></td></tr><tr><td style="font-weight:bold;vertical-align:top;">HTTP_COOKIE</td><td style="vertical-align:top;">:</td><td><div>session=eyJ1c2VyIjp7IiBiIjoiWVdSdGFXND0ifX0.CpC1uw.1vcuU5lTEJwtzRBMJtWYXZFqIT4; session_id_admin=192.168.2.160-0c4e372e-40d1-429f-97e9-119f28bca68a; session_id_gap2py=192.168.2.160-c448d3ca-ec99-4bba-a9ab-8b15614e27e1</div></td></tr><tr><td style="font-weight:bold;vertical-align:top;">HTTP_HOST</td><td style="vertical-align:top;">:</td><td><div>192.168.2.114:8159</div></td></tr><tr><td style="font-weight:bold;vertical-align:top;">HTTP_UPGRADE_INSECURE_REQUESTS</td><td style="vertical-align:top;">:</td><td><div>1</div></td></tr><tr><td style="font-weight:bold;vertical-align:top;">HTTP_USER_AGENT</td><td style="vertical-align:top;">:</td><td><div>Mozilla/5.0 (Macintosh; Intel Mac OS X 10_11_6) AppleWebKit/537.36 (KHTML, like Gecko) Chrome/49.0.2623.110 Safari/537.36</div></td></tr><tr><td style="font-weight:bold;vertical-align:top;">PATH_INFO</td><td style="vertical-align:top;">:</td><td><div>/gap2py/license/index</div></td></tr><tr><td style="font-weight:bold;vertical-align:top;">QUERY_STRING</td><td style="vertical-align:top;">:</td><td><div></div></td></tr><tr><td style="font-weight:bold;vertical-align:top;">REMOTE_ADDR</td><td style="vertical-align:top;">:</td><td><div>192.168.2.160</div></td></tr><tr><td style="font-weight:bold;vertical-align:top;">REMOTE_PORT</td><td style="vertical-align:top;">:</td><td><div>63482</div></td></tr><tr><td style="font-weight:bold;vertical-align:top;">REQUEST_METHOD</td><td style="vertical-align:top;">:</td><td><div>GET</div></td></tr><tr><td style="font-weight:bold;vertical-align:top;">SCRIPT_NAME</td><td style="vertical-align:top;">:</td><td><div></div></td></tr><tr><td style="font-weight:bold;vertical-align:top;">SERVER_NAME</td><td style="vertical-align:top;">:</td><td><div>MFIA</div></td></tr><tr><td style="font-weight:bold;vertical-align:top;">SERVER_PORT</td><td style="vertical-align:top;">:</td><td><div>8159</div></td></tr><tr><td style="font-weight:bold;vertical-align:top;">SERVER_PROTOCOL</td><td style="vertical-align:top;">:</td><td><div>HTTP/1.1</div></td></tr><tr><td style="font-weight:bold;vertical-align:top;">SERVER_SOFTWARE</td><td style="vertical-align:top;">:</td><td><div>Rocket 1.2.6</div></td></tr><tr><td style="font-weight:bold;vertical-align:top;">SSL_CLIENT_RAW_CERT</td><td style="vertical-align:top;">:</td><td><div>None</div></td></tr><tr><td style="font-weight:bold;vertical-align:top;">app_folders</td><td style="vertical-align:top;">:</td><td><div>set([&#x27;/usr/nc-home/gap2py/web2py/applications/admin/&#x27;, &#x27;/usr/nc-home/gap2py/web2py/applications/gap2py/&#x27;])</div></td></tr><tr><td style="font-weight:bold;vertical-align:top;">applications_parent</td><td style="vertical-align:top;">:</td><td><div>/usr/nc-home/gap2py/web2py</div></td></tr><tr><td style="font-weight:bold;vertical-align:top;">cmd_args</td><td style="vertical-align:top;">:</td><td><div><table></table></div></td></tr><tr><td style="font-weight:bold;vertical-align:top;">cmd_options</td><td style="vertical-align:top;">:</td><td><div>&lt;Values at 0x2921244c: {&#x27;verbose&#x27;: False, &#x27;ip&#x27;: &#x27;0.0.0.0&#x27;, &#x27;debuglevel&#x27;: 30, &#x27;with_scheduler&#x27;: False, &#x27;shutdown_timeout&#x27;: 5, &#x27;taskbar&#x27;: False, &#x27;with_coverage&#x27;: False, &#x27;pid_filename&#x27;: &#x27;httpserver.pid&#x27;, &#x27;maxthreads&#x27;: None, &#x27;softcron&#x27;: False, &#x27;server_name&#x27;: &#x27;MFIA&#x27;, &#x27;bpython&#x27;: False, &#x27;nogui&#x27;: False, &#x27;port&#x27;: 8159, &#x27;print_errors&#x27;: False, &#x27;extcron&#x27;: False, &#x27;runcron&#x27;: False, &#x27;run_system_tests&#x27;: False, &#x27;test&#x27;: None, &#x27;folder&#x27;: &#x27;/usr/nc-home/gap2py/web2py&#x27;, &#x27;config&#x27;: &#x27;&#x27;, &#x27;minthreads&#x27;: None, &#x27;shell&#x27;: None, &#x27;run&#x27;: &#x27;&#x27;, &#x27;log_filename&#x27;: &#x27;httpserver.log&#x27;, &#x27;profiler_dir&#x27;: None, &#x27;args&#x27;: [&#x27;&#x27;], &#x27;socket_timeout&#x27;: 5, &#x27;ssl_ca_certificate&#x27;: None, &#x27;scheduler&#x27;: None, &#x27;interfaces&#x27;: None, &#x27;ssl_private_key&#x27;: &#x27;server.key&#x27;, &#x27;gae&#x27;: None, &#x27;password&#x27;: &#x27;******&#x27;, &#x27;request_queue_size&#x27;: 5, &#x27;ssl_certificate&#x27;: &#x27;server.crt&#x27;, &#x27;cronjob&#x27;: False, &#x27;numthreads&#x27;: None, &#x27;quiet&#x27;: False, &#x27;import_models&#x27;: False, &#x27;timeout&#x27;: 10, &#x27;plain&#x27;: False, &#x27;nobanner&#x27;: False}&gt;</div></td></tr><tr><td style="font-weight:bold;vertical-align:top;">db_sessions</td><td style="vertical-align:top;">:</td><td><div>set([])</div></td></tr><tr><td style="font-weight:bold;vertical-align:top;">debugging</td><td style="vertical-align:top;">:</td><td><div>True</div></td></tr><tr><td style="font-weight:bold;vertical-align:top;">gluon_parent</td><td style="vertical-align:top;">:</td><td><div>/usr/nc-home/gap2py/web2py</div></td></tr><tr><td style="font-weight:bold;vertical-align:top;">http_accept</td><td style="vertical-align:top;">:</td><td><div>text/html,application/xhtml+xml,application/xml;q=0.9,image/webp,*/*;q=0.8</div></td></tr><tr><td style="font-weight:bold;vertical-align:top;">http_accept_encoding</td><td style="vertical-align:top;">:</td><td><div>gzip, deflate, sdch</div></td></tr><tr><td style="font-weight:bold;vertical-align:top;">http_accept_language</td><td style="vertical-align:top;">:</td><td><div>zh-CN,zh;q=0.8</div></td></tr><tr><td style="font-weight:bold;vertical-align:top;">http_connection</td><td style="vertical-align:top;">:</td><td><div>keep-alive</div></td></tr><tr><td style="font-weight:bold;vertical-align:top;">http_cookie</td><td style="vertical-align:top;">:</td><td><div>session=eyJ1c2VyIjp7IiBiIjoiWVdSdGFXND0ifX0.CpC1uw.1vcuU5lTEJwtzRBMJtWYXZFqIT4; session_id_admin=192.168.2.160-0c4e372e-40d1-429f-97e9-119f28bca68a; session_id_gap2py=192.168.2.160-c448d3ca-ec99-4bba-a9ab-8b15614e27e1</div></td></tr><tr><td style="font-weight:bold;vertical-align:top;">http_host</td><td style="vertical-align:top;">:</td><td><div>192.168.2.114:8159</div></td></tr><tr><td style="font-weight:bold;vertical-align:top;">http_upgrade_insecure_requests</td><td style="vertical-align:top;">:</td><td><div>1</div></td></tr><tr><td style="font-weight:bold;vertical-align:top;">http_user_agent</td><td style="vertical-align:top;">:</td><td><div>Mozilla/5.0 (Macintosh; Intel Mac OS X 10_11_6) AppleWebKit/537.36 (KHTML, like Gecko) Chrome/49.0.2623.110 Safari/537.36</div></td></tr><tr><td style="font-weight:bold;vertical-align:top;">https</td><td style="vertical-align:top;">:</td><td><div>on</div></td></tr><tr><td style="font-weight:bold;vertical-align:top;">is_jython</td><td style="vertical-align:top;">:</td><td><div>False</div></td></tr><tr><td style="font-weight:bold;vertical-align:top;">is_pypy</td><td style="vertical-align:top;">:</td><td><div>False</div></td></tr><tr><td style="font-weight:bold;vertical-align:top;">is_source</td><td style="vertical-align:top;">:</td><td><div>True</div></td></tr><tr><td style="font-weight:bold;vertical-align:top;">local_hosts</td><td style="vertical-align:top;">:</td><td><div><table><tr><td><div>::1</div></td></tr><tr><td><div>MFIA</div></td></tr><tr><td><div>192.168.2.114</div></td></tr><tr><td><div>::ffff:127.0.0.1</div></td></tr><tr><td><div>127.0.0.1</div></td></tr></table></div></td></tr><tr><td style="font-weight:bold;vertical-align:top;">path_info</td><td style="vertical-align:top;">:</td><td><div>/gap2py/license/index</div></td></tr><tr><td style="font-weight:bold;vertical-align:top;">query_string</td><td style="vertical-align:top;">:</td><td><div></div></td></tr><tr><td style="font-weight:bold;vertical-align:top;">remote_addr</td><td style="vertical-align:top;">:</td><td><div>192.168.2.160</div></td></tr><tr><td style="font-weight:bold;vertical-align:top;">remote_port</td><td style="vertical-align:top;">:</td><td><div>63482</div></td></tr><tr><td style="font-weight:bold;vertical-align:top;">request_method</td><td style="vertical-align:top;">:</td><td><div>GET</div></td></tr><tr><td style="font-weight:bold;vertical-align:top;">request_uri</td><td style="vertical-align:top;">:</td><td><div>/gap2py/license/index</div></td></tr><tr><td style="font-weight:bold;vertical-align:top;">script_name</td><td style="vertical-align:top;">:</td><td><div></div></td></tr><tr><td style="font-weight:bold;vertical-align:top;">server_name</td><td style="vertical-align:top;">:</td><td><div>MFIA</div></td></tr><tr><td style="font-weight:bold;vertical-align:top;">server_port</td><td style="vertical-align:top;">:</td><td><div>8159</div></td></tr><tr><td style="font-weight:bold;vertical-align:top;">server_protocol</td><td style="vertical-align:top;">:</td><td><div>HTTP/1.1</div></td></tr><tr><td style="font-weight:bold;vertical-align:top;">server_software</td><td style="vertical-align:top;">:</td><td><div>Rocket 1.2.6</div></td></tr><tr><td style="font-weight:bold;vertical-align:top;">ssl_client_raw_cert</td><td style="vertical-align:top;">:</td><td><div>None</div></td></tr><tr><td style="font-weight:bold;vertical-align:top;">web2py_path</td><td style="vertical-align:top;">:</td><td><div>/usr/nc-home/gap2py/web2py</div></td></tr><tr><td style="font-weight:bold;vertical-align:top;">web2py_version</td><td style="vertical-align:top;">:</td><td><div>2.14.6-stable+timestamp.2016.05.10.00.21.47</div></td></tr><tr><td style="font-weight:bold;vertical-align:top;">wsgi.errors</td><td style="vertical-align:top;">:</td><td><div>&lt;open file &#x27;&lt;stderr&gt;&#x27;, mode &#x27;w&#x27; at 0x2833a0d0&gt;</div></td></tr><tr><td style="font-weight:bold;vertical-align:top;">wsgi.file_wrapper</td><td style="vertical-align:top;">:</td><td><div>&lt;class wsgiref.util.FileWrapper at 0x291a598c&gt;</div></td></tr><tr><td style="font-weight:bold;vertical-align:top;">wsgi.input</td><td style="vertical-align:top;">:</td><td><div>&lt;socket._fileobject object at 0x295f766c&gt;</div></td></tr><tr><td style="font-weight:bold;vertical-align:top;">wsgi.multiprocess</td><td style="vertical-align:top;">:</td><td><div>False</div></td></tr><tr><td style="font-weight:bold;vertical-align:top;">wsgi.multithread</td><td style="vertical-align:top;">:</td><td><div>True</div></td></tr><tr><td style="font-weight:bold;vertical-align:top;">wsgi.run_once</td><td style="vertical-align:top;">:</td><td><div>False</div></td></tr><tr><td style="font-weight:bold;vertical-align:top;">wsgi.url_scheme</td><td style="vertical-align:top;">:</td><td><div>https</div></td></tr><tr><td style="font-weight:bold;vertical-align:top;">wsgi.version</td><td style="vertical-align:top;">:</td><td><div><table><tr><td><div>1</div></td></tr><tr><td><div>0</div></td></tr></table></div></td></tr><tr><td style="font-weight:bold;vertical-align:top;">wsgi_errors</td><td style="vertical-align:top;">:</td><td><div>&lt;open file &#x27;&lt;stderr&gt;&#x27;, mode &#x27;w&#x27; at 0x2833a0d0&gt;</div></td></tr><tr><td style="font-weight:bold;vertical-align:top;">wsgi_file_wrapper</td><td style="vertical-align:top;">:</td><td><div>&lt;class wsgiref.util.FileWrapper at 0x291a598c&gt;</div></td></tr><tr><td style="font-weight:bold;vertical-align:top;">wsgi_input</td><td style="vertical-align:top;">:</td><td><div>&lt;socket._fileobject object at 0x295f766c&gt;</div></td></tr><tr><td style="font-weight:bold;vertical-align:top;">wsgi_multiprocess</td><td style="vertical-align:top;">:</td><td><div>False</div></td></tr><tr><td style="font-weight:bold;vertical-align:top;">wsgi_multithread</td><td style="vertical-align:top;">:</td><td><div>True</div></td></tr><tr><td style="font-weight:bold;vertical-align:top;">wsgi_run_once</td><td style="vertical-align:top;">:</td><td><div>False</div></td></tr><tr><td style="font-weight:bold;vertical-align:top;">wsgi_url_scheme</td><td style="vertical-align:top;">:</td><td><div>https</div></td></tr><tr><td style="font-weight:bold;vertical-align:top;">wsgi_version</td><td style="vertical-align:top;">:</td><td><div><table><tr><td><div>1</div></td></tr><tr><td><div>0</div></td></tr></table></div></td></tr></table></div></td></tr><tr><td style="font-weight:bold;vertical-align:top;">extension</td><td style="vertical-align:top;">:</td><td><div>html</div></td></tr><tr><td style="font-weight:bold;vertical-align:top;">folder</td><td style="vertical-align:top;">:</td><td><div>/usr/nc-home/gap2py/web2py/applications/gap2py/</div></td></tr><tr><td style="font-weight:bold;vertical-align:top;">function</td><td style="vertical-align:top;">:</td><td><div>index</div></td></tr><tr><td style="font-weight:bold;vertical-align:top;">global_settings</td><td style="vertical-align:top;">:</td><td><div><table><tr><td style="font-weight:bold;vertical-align:top;">app_folders</td><td style="vertical-align:top;">:</td><td><div>set([&#x27;/usr/nc-home/gap2py/web2py/applications/admin/&#x27;, &#x27;/usr/nc-home/gap2py/web2py/applications/gap2py/&#x27;])</div></td></tr><tr><td style="font-weight:bold;vertical-align:top;">applications_parent</td><td style="vertical-align:top;">:</td><td><div>/usr/nc-home/gap2py/web2py</div></td></tr><tr><td style="font-weight:bold;vertical-align:top;">cmd_args</td><td style="vertical-align:top;">:</td><td><div><table></table></div></td></tr><tr><td style="font-weight:bold;vertical-align:top;">cmd_options</td><td style="vertical-align:top;">:</td><td><div>&lt;Values at 0x2921244c: {&#x27;verbose&#x27;: False, &#x27;ip&#x27;: &#x27;0.0.0.0&#x27;, &#x27;debuglevel&#x27;: 30, &#x27;with_scheduler&#x27;: False, &#x27;shutdown_timeout&#x27;: 5, &#x27;taskbar&#x27;: False, &#x27;with_coverage&#x27;: False, &#x27;pid_filename&#x27;: &#x27;httpserver.pid&#x27;, &#x27;maxthreads&#x27;: None, &#x27;softcron&#x27;: False, &#x27;server_name&#x27;: &#x27;MFIA&#x27;, &#x27;bpython&#x27;: False, &#x27;nogui&#x27;: False, &#x27;port&#x27;: 8159, &#x27;print_errors&#x27;: False, &#x27;extcron&#x27;: False, &#x27;runcron&#x27;: False, &#x27;run_system_tests&#x27;: False, &#x27;test&#x27;: None, &#x27;folder&#x27;: &#x27;/usr/nc-home/gap2py/web2py&#x27;, &#x27;config&#x27;: &#x27;&#x27;, &#x27;minthreads&#x27;: None, &#x27;shell&#x27;: None, &#x27;run&#x27;: &#x27;&#x27;, &#x27;log_filename&#x27;: &#x27;httpserver.log&#x27;, &#x27;profiler_dir&#x27;: None, &#x27;args&#x27;: [&#x27;&#x27;], &#x27;socket_timeout&#x27;: 5, &#x27;ssl_ca_certificate&#x27;: None, &#x27;scheduler&#x27;: None, &#x27;interfaces&#x27;: None, &#x27;ssl_private_key&#x27;: &#x27;server.key&#x27;, &#x27;gae&#x27;: None, &#x27;password&#x27;: &#x27;******&#x27;, &#x27;request_queue_size&#x27;: 5, &#x27;ssl_certificate&#x27;: &#x27;server.crt&#x27;, &#x27;cronjob&#x27;: False, &#x27;numthreads&#x27;: None, &#x27;quiet&#x27;: False, &#x27;import_models&#x27;: False, &#x27;timeout&#x27;: 10, &#x27;plain&#x27;: False, &#x27;nobanner&#x27;: False}&gt;</div></td></tr><tr><td style="font-weight:bold;vertical-align:top;">db_sessions</td><td style="vertical-align:top;">:</td><td><div>set([])</div></td></tr><tr><td style="font-weight:bold;vertical-align:top;">debugging</td><td style="vertical-align:top;">:</td><td><div>True</div></td></tr><tr><td style="font-weight:bold;vertical-align:top;">gluon_parent</td><td style="vertical-align:top;">:</td><td><div>/usr/nc-home/gap2py/web2py</div></td></tr><tr><td style="font-weight:bold;vertical-align:top;">is_jython</td><td style="vertical-align:top;">:</td><td><div>False</div></td></tr><tr><td style="font-weight:bold;vertical-align:top;">is_pypy</td><td style="vertical-align:top;">:</td><td><div>False</div></td></tr><tr><td style="font-weight:bold;vertical-align:top;">is_source</td><td style="vertical-align:top;">:</td><td><div>True</div></td></tr><tr><td style="font-weight:bold;vertical-align:top;">local_hosts</td><td style="vertical-align:top;">:</td><td><div><table><tr><td><div>::1</div></td></tr><tr><td><div>MFIA</div></td></tr><tr><td><div>192.168.2.114</div></td></tr><tr><td><div>::ffff:127.0.0.1</div></td></tr><tr><td><div>127.0.0.1</div></td></tr></table></div></td></tr><tr><td style="font-weight:bold;vertical-align:top;">web2py_version</td><td style="vertical-align:top;">:</td><td><div>2.14.6-stable+timestamp.2016.05.10.00.21.47</div></td></tr></table></div></td></tr><tr><td style="font-weight:bold;vertical-align:top;">is_https</td><td style="vertical-align:top;">:</td><td><div>True</div></td></tr><tr><td style="font-weight:bold;vertical-align:top;">is_local</td><td style="vertical-align:top;">:</td><td><div>False</div></td></tr><tr><td style="font-weight:bold;vertical-align:top;">is_restful</td><td style="vertical-align:top;">:</td><td><div>False</div></td></tr><tr><td style="font-weight:bold;vertical-align:top;">is_scheduler</td><td style="vertical-align:top;">:</td><td><div>False</div></td></tr><tr><td style="font-weight:bold;vertical-align:top;">is_shell</td><td style="vertical-align:top;">:</td><td><div>False</div></td></tr><tr><td style="font-weight:bold;vertical-align:top;">now</td><td style="vertical-align:top;">:</td><td><div>datetime.datetime(2016, 8, 14, 16, 24, 30, 872793)</div></td></tr><tr><td style="font-weight:bold;vertical-align:top;">raw_args</td><td style="vertical-align:top;">:</td><td><div></div></td></tr><tr><td style="font-weight:bold;vertical-align:top;">raw_extension</td><td style="vertical-align:top;">:</td><td><div>None</div></td></tr><tr><td style="font-weight:bold;vertical-align:top;">url</td><td style="vertical-align:top;">:</td><td><div>/gap2py/license/index</div></td></tr><tr><td style="font-weight:bold;vertical-align:top;">utcnow</td><td style="vertical-align:top;">:</td><td><div>datetime.datetime(2016, 8, 14, 16, 24, 30, 872802)</div></td></tr><tr><td style="font-weight:bold;vertical-align:top;">wsgi</td><td style="vertical-align:top;">:</td><td><div>&lt;gluon.main.LazyWSGI object at 0x2963e4ac&gt;</div></td></tr></table></div>'
tRp58
sS'frames'
p59
(lp60
(dp61
S'file'
p62
S'/usr/nc-home/gap2py/web2py/gluon/restricted.py'
p63
sS'dump'
p64
(dp65
S'environment'
p66
S"{'A': <class 'gluon.html.A'>, 'ANY_OF': <class 'gluon.validators.ANY_OF'>, 'ASSIGNJS': <function ASSIGNJS>, 'B': <class 'gluon.html.B'>, 'BEAUTIFY': <class 'gluon.html.BEAUTIFY'>, 'BODY': <class 'gluon.html.BODY'>, 'BR': <class 'gluon.html.BR'>, 'BUTTON': <class 'gluon.html.BUTTON'>, 'CAT': <class 'gluon.html.CAT'>, 'CENTER': <class 'gluon.html.CENTER'>, ...}"
p67
sS'ccode'
p68
S'<code object <module> at 0x295f2458, file "/usr/...cations/gap2py/views/license/index.html", line 1>'
p69
ssS'lnum'
p70
I227
sS'lines'
p71
(dp72
I224
S'            ccode = code'
p73
sI225
S'        else:'
p74
sI226
S'            ccode = compile2(code, layer)'
p75
sI227
S'        exec ccode in environment'
p76
sI228
S'    except HTTP:'
p77
sI229
S'        raise'
p78
sI230
S'    except RestrictedError:'
p79
sI231
S'        # do not encapsulate (obfuscate) the original RestrictedError'
p80
sI222
S'    try:'
p81
sI223
S'        if isinstance(code, types.CodeType):'
p82
ssS'call'
p83
S'(code=r"response.write(\'<!DOCTYPE html>\\n<html>\\n<head>\\...iv>\\n</div>\\n\\n</body>\\n</html>\\n\', escape=False)", environment={\'A\': <class \'gluon.html.A\'>, \'ANY_OF\': <class \'gluon.validators.ANY_OF\'>, \'ASSIGNJS\': <function ASSIGNJS>, \'B\': <class \'gluon.html.B\'>, \'BEAUTIFY\': <class \'gluon.html.BEAUTIFY\'>, \'BODY\': <class \'gluon.html.BODY\'>, \'BR\': <class \'gluon.html.BR\'>, \'BUTTON\': <class \'gluon.html.BUTTON\'>, \'CAT\': <class \'gluon.html.CAT\'>, \'CENTER\': <class \'gluon.html.CENTER\'>, ...}, layer=\'/usr/nc-home/gap2py/web2py/applications/gap2py/views/license/index.html\')'
p84
sS'func'
p85
S'restricted'
p86
sa(dp87
g62
S'/usr/nc-home/gap2py/web2py/applications/gap2py/views/license/index.html'
p88
sg64
(dp89
S'title'
p90
S'undefined'
p91
ssg70
I4
sg71
(dp92
I1
S'response.write(\'<!DOCTYPE html>\\n<html>\\n<head>\\n    <title>\\xe4\\xb8\\xad\\xe7\\xbd\\x91\\xe9\\xa9\\xb0\\xe4\\xba\\x91\\xe9\\x98\\xb2\\xe7\\x81\\xab\\xe5\\xa2\\x99</title>\\n    <meta http-equiv="X-UA-Compatible" content="IE=edge">\\n    <meta name="renderer" content="webkit">\\n    <meta http-equiv="Content-Type" content="text/html; charset=utf-8"/>\\n    <meta name="viewport" content="width=device-width, initial-scale=1.0">\\n    <link rel="stylesheet" href="/static/css/pintuer.css">\\n    <style type="text/css">\\n\\n        body {\\n\\n            color: #2b2b2b;\\n            background-image: url(\', escape=False)'
p93
sI2
S"response.write(URL('static','img/bg.jpg'))"
p94
sI3
S'response.write(\' );\\n        }\\n    </style>\\n    <script src="/static/js/jquery.js"></script>\\n    <script src="/static/js/pintuer.js"></script>\\n    <script src="/static/js/respond.js"></script>\\n    <script type="text/javascript">\\n        $(function () {\\n            var action = "reload";\\n\\n            $("#" + action).on(\\\'click\\\', function () {\\n                //noinspection UnterminatedStatementJS\\n                console.log(action);\\n                $.get("/lc_reload/", function (result) {\\n                });\\n            });\\n            action = "cancle";\\n            $("#" + action).on(\\\'click\\\', function () {\\n                console.log(action);\\n\\n                $("#mydialog").hide()\\n            });\\n        });\\n    </script>\\n</head>\\n<body>\\n<div class="layout doc-header fixed">\\n    <div class="layout doc-toper">\\n        <div class="container">\\n            <div class="line">\\n                <div class="x8 fadein-left">\\xe6\\xac\\xa2\\xe8\\xbf\\x8e\\xe4\\xbd\\xbf\\xe7\\x94\\xa8\\xe4\\xb8\\xad\\xe7\\xbd\\x91\\xe9\\xa9\\xb0\\xe4\\xba\\x91\\xe7\\xbd\\x91\\xe9\\x97\\xb8WEB\\xe7\\x95\\x8c\\xe9\\x9d\\xa2</div>\\n                <div class="x4 text-right fadein-right">\\xe8\\xae\\xbf\\xe9\\x97\\xae<a target="_blank" href="http://midnet.com.cn/">midnet</a>\\n                </div>\\n            </div>\\n        </div>\\n    </div>\\n\\n</div>\\n\\n<br>\\n\\n<div class="container">\\n\\n\\n    <div class="panel">\\n        <div class="panel-head bg-green"><h4>\\xe8\\xaf\\xb7\\xe5\\x9c\\xa8\\xe4\\xb8\\x8b\\xe6\\x96\\xb9\\xe7\\x9a\\x84\\xe8\\xbe\\x93\\xe5\\x85\\xa5\\xe6\\xa1\\x86\\xe4\\xb8\\xad\\xe8\\xbe\\x93\\xe5\\x85\\xa5License</h4></div>\\n        <div class="panel-body" style="height: 600px">\\n            <blockquote class="quote border-green doc-quote"><strong>\\xe7\\x94\\x9f\\xe6\\x88\\x90\\xe7\\xa0\\x81</strong>\\n                \', escape=False)'
p95
sI4
S'mash'
p96
sI5
S'response.write(\'\\n            </blockquote>\\n            <br>\\n\\n            <div>\\n                <form action="" class="" method="post">\\n\\n                    <!--suppress HtmlFormInputWithoutLabel -->\\n                    <textarea rows="5" class="input" style="height: 300px" name="license" class="radius"></textarea>\\n                    <br>\\n                    <button class="button bg-green button-big button-block float-right">\\xe6\\x8f\\x90\\xe4\\xba\\xa4</button>\\n\\n                </form>\\n            </div>\\n        </div>\\n    </div>\\n\\n\\n</div>\\n<br>\\n\\n<div class="container">\\n    <div class="alert alert-yellow border border-small border-dashed "><span\\n            class="close rotate-hover"></span><strong>\\n\\n        {% if status %}\\n            \', escape=False)'
p97
sI6
S'status'
p98
sI7
S'response.write(\'\\n        {% else %}\\n            \\xe6\\xb3\\xa8\\xe6\\x84\\x8f\\n        {% endif %}\\n\\n\\n    </strong></div>\\n    <br>\\n    <button class="button button-big bg-green dialogs float-right" data-toggle="click" data-target="#mydialog"\\n            data-mask="1"\\n            data-width="50%">\\xe9\\x87\\x8d\\xe5\\x90\\xaf\\xe7\\xbd\\x91\\xe9\\x97\\xb8\\n    </button>\\n\\n    <a href="/" class="button button-big bg-green dialogs float-left" data-toggle="click" data-target="#mydialog"\\n       data-mask="1"\\n       data-width="50%">\\xe5\\x88\\xb7\\xe6\\x96\\xb0\\n    </a>\\n\\n\\n    <div id="mydialog">\\n        <div class="dialog">\\n            <div class="dialog-head">\\n                <span class="close rotate-hover"></span>\\n                <strong>\\xe7\\xa1\\xae\\xe5\\xae\\x9a</strong>\\n            </div>\\n            <div class="dialog-body">\\n                \\xe7\\xa1\\xae\\xe5\\xae\\x9a\\xe8\\xa6\\x81\\xe9\\x87\\x8d\\xe5\\x90\\xaf\\xe7\\xbd\\x91\\xe9\\x97\\xb8\\xe5\\x90\\x97?\\n            </div>\\n            <div class="dialog-foot">\\n                <button id=\\\'cancle\\\' class="button dialog-close" onclick="console.log(\\\'cancle\\\')">\\xe5\\x8f\\x96\\xe6\\xb6\\x88</button>\\n                <button id="reload" class="button bg-green dialog-close "\\n                        onclick="console.log(\\\'reload\\\');$.get(\\\'/lc_reload/\\\', function (result) {});">\\xe7\\xa1\\xae\\xe8\\xae\\xa4\\n                </button>\\n            </div>\\n        </div>\\n    </div>\\n</div>\\n\\n</body>\\n</html>\\n\', escape=False)'
p99
ssg83
S'()'
p100
sg85
S'<module>'
p101
sasS'pyver'
p102
S'Python 2.7.10: /bin/python (prefix: /usr/nc-home/home/gap)'
p103
sS'session'
p104
g57
(S's\x9c\x00\x00\x00<div><table><tr><td style="font-weight:bold;vertical-align:top;">user</td><td style="vertical-align:top;">:</td><td><div>admin</div></td></tr></table></div>'
tRp105
sS'etype'
p106
S"<type 'exceptions.NameError'>"
p107
sS'date'
p108
S'Sun Aug 14 16:24:30 2016'
p109
sS'response'
p110
g57
(S'ss\x17\x00\x00<div><table><tr><td style="font-weight:bold;vertical-align:top;">body</td><td style="vertical-align:top;">:</td><td><div>&lt;cStringIO.StringO object at 0x2a135a20&gt;</div></td></tr><tr><td style="font-weight:bold;vertical-align:top;">cookies</td><td style="vertical-align:top;">:</td><td><div><table><tr><td style="font-weight:bold;vertical-align:top;">session_id_gap2py</td><td style="vertical-align:top;">:</td><td><div>192.168.2.160-c448d3ca-ec99-4bba-a9ab-8b15614e27e1<table><tr><td style="font-weight:bold;vertical-align:top;">comment</td><td style="vertical-align:top;">:</td><td><div></div></td></tr><tr><td style="font-weight:bold;vertical-align:top;">domain</td><td style="vertical-align:top;">:</td><td><div></div></td></tr><tr><td style="font-weight:bold;vertical-align:top;">expires</td><td style="vertical-align:top;">:</td><td><div></div></td></tr><tr><td style="font-weight:bold;vertical-align:top;">httponly</td><td style="vertical-align:top;">:</td><td><div></div></td></tr><tr><td style="font-weight:bold;vertical-align:top;">max-age</td><td style="vertical-align:top;">:</td><td><div></div></td></tr><tr><td style="font-weight:bold;vertical-align:top;">path</td><td style="vertical-align:top;">:</td><td><div>/</div></td></tr><tr><td style="font-weight:bold;vertical-align:top;">secure</td><td style="vertical-align:top;">:</td><td><div></div></td></tr><tr><td style="font-weight:bold;vertical-align:top;">version</td><td style="vertical-align:top;">:</td><td><div></div></td></tr></table></div></td></tr></table></div></td></tr><tr><td style="font-weight:bold;vertical-align:top;">delimiters</td><td style="vertical-align:top;">:</td><td><div><table><tr><td><div>{{</div></td></tr><tr><td><div>}}</div></td></tr></table></div></td></tr><tr><td style="font-weight:bold;vertical-align:top;">files</td><td style="vertical-align:top;">:</td><td><div><table></table></div></td></tr><tr><td style="font-weight:bold;vertical-align:top;">flash</td><td style="vertical-align:top;">:</td><td><div></div></td></tr><tr><td style="font-weight:bold;vertical-align:top;">form_label_separator</td><td style="vertical-align:top;">:</td><td><div>: </div></td></tr><tr><td style="font-weight:bold;vertical-align:top;">formstyle</td><td style="vertical-align:top;">:</td><td><div>table3cols</div></td></tr><tr><td style="font-weight:bold;vertical-align:top;">generic_patterns</td><td style="vertical-align:top;">:</td><td><div><table><tr><td><div>*</div></td></tr></table></div></td></tr><tr><td style="font-weight:bold;vertical-align:top;">headers</td><td style="vertical-align:top;">:</td><td><div><table><tr><td style="font-weight:bold;vertical-align:top;">X-Powered-By</td><td style="vertical-align:top;">:</td><td><div>web2py</div></td></tr></table></div></td></tr><tr><td style="font-weight:bold;vertical-align:top;">menu</td><td style="vertical-align:top;">:</td><td><div><table></table></div></td></tr><tr><td style="font-weight:bold;vertical-align:top;">meta</td><td style="vertical-align:top;">:</td><td><div><table></table></div></td></tr><tr><td style="font-weight:bold;vertical-align:top;">models_to_run</td><td style="vertical-align:top;">:</td><td><div><table><tr><td><div>^\\w+\\.py$</div></td></tr><tr><td><div>^license/\\w+\\.py$</div></td></tr><tr><td><div>^license/index/\\w+\\.py$</div></td></tr></table></div></td></tr><tr><td style="font-weight:bold;vertical-align:top;">postprocessing</td><td style="vertical-align:top;">:</td><td><div><table></table></div></td></tr><tr><td style="font-weight:bold;vertical-align:top;">session_client</td><td style="vertical-align:top;">:</td><td><div>192.168.2.160</div></td></tr><tr><td style="font-weight:bold;vertical-align:top;">session_cookie_compression_level</td><td style="vertical-align:top;">:</td><td><div>None</div></td></tr><tr><td style="font-weight:bold;vertical-align:top;">session_cookie_expires</td><td style="vertical-align:top;">:</td><td><div>None</div></td></tr><tr><td style="font-weight:bold;vertical-align:top;">session_data_name</td><td style="vertical-align:top;">:</td><td><div>session_data_gap2py</div></td></tr><tr><td style="font-weight:bold;vertical-align:top;">session_file</td><td style="vertical-align:top;">:</td><td><div>&lt;open file &#x27;/usr/nc-home/gap2py/web2py/applications/gap2py/sessions/12d/04b/192.168.2.160-c448d3ca-ec99-4bba-a9ab-8b15614e27e1&#x27;, mode &#x27;rb+&#x27; at 0x29b73548&gt;</div></td></tr><tr><td style="font-weight:bold;vertical-align:top;">session_filename</td><td style="vertical-align:top;">:</td><td><div>/usr/nc-home/gap2py/web2py/applications/gap2py/sessions/192.168.2.160-c448d3ca-ec99-4bba-a9ab-8b15614e27e1</div></td></tr><tr><td style="font-weight:bold;vertical-align:top;">session_hash</td><td style="vertical-align:top;">:</td><td><div>913f592db4712111bf84458373d291ba</div></td></tr><tr><td style="font-weight:bold;vertical-align:top;">session_id</td><td style="vertical-align:top;">:</td><td><div>192.168.2.160-c448d3ca-ec99-4bba-a9ab-8b15614e27e1</div></td></tr><tr><td style="font-weight:bold;vertical-align:top;">session_id_name</td><td style="vertical-align:top;">:</td><td><div>session_id_gap2py</div></td></tr><tr><td style="font-weight:bold;vertical-align:top;">session_locked</td><td style="vertical-align:top;">:</td><td><div>True</div></td></tr><tr><td style="font-weight:bold;vertical-align:top;">session_masterapp</td><td style="vertical-align:top;">:</td><td><div>gap2py</div></td></tr><tr><td style="font-weight:bold;vertical-align:top;">session_new</td><td style="vertical-align:top;">:</td><td><div>False</div></td></tr><tr><td style="font-weight:bold;vertical-align:top;">session_storage_type</td><td style="vertical-align:top;">:</td><td><div>file</div></td></tr><tr><td style="font-weight:bold;vertical-align:top;">status</td><td style="vertical-align:top;">:</td><td><div>200</div></td></tr><tr><td style="font-weight:bold;vertical-align:top;">view</td><td style="vertical-align:top;">:</td><td><div>license/index.html</div></td></tr></table></div>'
tRp111
sS'locals'
p112
(dp113
S'OBJECT'
p114
S"<class 'gluon.html.OBJECT'>"
p115
sS'SQLDB'
p116
S"<class 'pydal.base.DAL'>"
p117
sg104
S"<Storage {'user': 'admin', '_secure': True}>"
p118
sS'LINK'
p119
S"<class 'gluon.html.LINK'>"
p120
sS'BR'
p121
S"<class 'gluon.html.BR'>"
p122
sS'local_import'
p123
S'<function <lambda>>'
p124
sS'OPTGROUP'
p125
S"<class 'gluon.html.OPTGROUP'>"
p126
sS'PRE'
p127
S"<class 'gluon.html.PRE'>"
p128
sS'IS_INT_IN_RANGE'
p129
S"<class 'gluon.validators.IS_INT_IN_RANGE'>"
p130
sS'IS_LOWER'
p131
S"<class 'gluon.validators.IS_LOWER'>"
p132
sS'IS_STRONG'
p133
S"<class 'gluon.validators.IS_STRONG'>"
p134
sS'cache'
p135
S'<gluon.cache.Cache object>'
p136
sS'IS_IN_DB'
p137
S"<class 'gluon.validators.IS_IN_DB'>"
p138
sS'TAG'
p139
S'<gluon.html.__TAG__ object>'
p140
sS'SQLField'
p141
S"<class 'pydal.objects.Field'>"
p142
sS'BODY'
p143
S"<class 'gluon.html.BODY'>"
p144
sS'IS_DATE_IN_RANGE'
p145
S"<class 'gluon.validators.IS_DATE_IN_RANGE'>"
p146
sS'TH'
p147
S"<class 'gluon.html.TH'>"
p148
sS'URL'
p149
S'<function URL>'
p150
sS'__file__'
p151
S"'/usr/nc-home/gap2py/web2py/applications/gap2py/views/license/index.html'"
p152
sS'P'
S"<class 'gluon.html.P'>"
p153
sS'TFOOT'
p154
S"<class 'gluon.html.TFOOT'>"
p155
sS'XHTML'
p156
S"<class 'gluon.html.XHTML'>"
p157
sS'ON'
p158
S'True'
p159
sS'OL'
p160
S"<class 'gluon.html.OL'>"
p161
sS'TEXTAREA'
p162
S"<class 'gluon.html.TEXTAREA'>"
p163
sS'MENU'
p164
S"<class 'gluon.html.MENU'>"
p165
sS'LOAD'
p166
S'<function LOAD>'
p167
sS'CODE'
p168
S"<class 'gluon.html.CODE'>"
p169
sS'HTTP'
p170
S"<class 'gluon.http.HTTP'>"
p171
sS'HR'
p172
S"<class 'gluon.html.HR'>"
p173
sS'IS_DATETIME'
p174
S"<class 'gluon.validators.IS_DATETIME'>"
p175
sS'HEAD'
p176
S"<class 'gluon.html.HEAD'>"
p177
sS'LABEL'
p178
S"<class 'gluon.html.LABEL'>"
p179
sS'CLEANUP'
p180
S"<class 'gluon.validators.CLEANUP'>"
p181
sS'SELECT'
p182
S"<class 'gluon.html.SELECT'>"
p183
sS'CENTER'
p184
S"<class 'gluon.html.CENTER'>"
p185
sS'__builtins__'
p186
S"{'ArithmeticError': <type 'exceptions.ArithmeticError'>, 'AssertionError': <type 'exceptions.AssertionError'>, 'AttributeError': <type 'exceptions.AttributeError'>, 'BaseException': <type 'exceptions.BaseException'>, 'BufferError': <type 'exceptions.BufferError'>, 'BytesWarning': <type 'exceptions.BytesWarning'>, 'DeprecationWarning': <type 'exceptions.DeprecationWarning'>, 'EOFError': <type 'exceptions.EOFError'>, 'Ellipsis': Ellipsis, 'EnvironmentError': <type 'exceptions.EnvironmentError'>, ...}"
p187
sS'HTML'
p188
S"<class 'gluon.html.HTML'>"
p189
sS'SQLFORM'
p190
S"<class 'gluon.sqlhtml.SQLFORM'>"
p191
sS'EM'
p192
S"<class 'gluon.html.EM'>"
p193
sS'redirect'
p194
S'<function redirect>'
p195
sS'FIELDSET'
p196
S"<class 'gluon.html.FIELDSET'>"
p197
sS'IS_EQUAL_TO'
p198
S"<class 'gluon.validators.IS_EQUAL_TO'>"
p199
sS'embed64'
p200
S'<function embed64>'
p201
sS'IS_LIST_OF'
p202
S"<class 'gluon.validators.IS_LIST_OF'>"
p203
sS'__name__'
p204
S"'__restricted__'"
p205
sS'EMBED'
p206
S"<class 'gluon.html.EMBED'>"
p207
sS'FORM'
p208
S"<class 'gluon.html.FORM'>"
p209
sS'H2'
p210
S"<class 'gluon.html.H2'>"
p211
sS'H3'
p212
S"<class 'gluon.html.H3'>"
p213
sS'BUTTON'
p214
S"<class 'gluon.html.BUTTON'>"
p215
sS'H1'
p216
S"<class 'gluon.html.H1'>"
p217
sS'H6'
p218
S"<class 'gluon.html.H6'>"
p219
sS'H4'
p220
S"<class 'gluon.html.H4'>"
p221
sS'H5'
p222
S"<class 'gluon.html.H5'>"
p223
sS'UL'
p224
S"<class 'gluon.html.UL'>"
p225
sS'IS_UPPER'
p226
S"<class 'gluon.validators.IS_UPPER'>"
p227
sS'xmlescape'
p228
S'<function xmlescape>'
p229
sS'IS_TIME'
p230
S"<class 'gluon.validators.IS_TIME'>"
p231
sS'OPTION'
p232
S"<class 'gluon.html.OPTION'>"
p233
sS'TITLE'
p234
S"<class 'gluon.html.TITLE'>"
p235
sS'CRYPT'
p236
S"<class 'gluon.validators.CRYPT'>"
p237
sS'IS_EMPTY_OR'
p238
S"<class 'gluon.validators.IS_EMPTY_OR'>"
p239
sS'MARKMIN'
p240
S"<class 'gluon.html.MARKMIN'>"
p241
sS'INPUT'
p242
S"<class 'gluon.html.INPUT'>"
p243
sS'message'
p244
S"'hello from license.py'"
p245
sS'STRONG'
p246
S"<class 'gluon.html.STRONG'>"
p247
sS'COL'
p248
S"<class 'gluon.html.COL'>"
p249
sS'SCRIPT'
p250
S"<class 'gluon.html.SCRIPT'>"
p251
sS'TABLE'
p252
S"<class 'gluon.html.TABLE'>"
p253
sS'IS_IPV4'
p254
S"<class 'gluon.validators.IS_IPV4'>"
p255
sS'IS_LENGTH'
p256
S"<class 'gluon.validators.IS_LENGTH'>"
p257
sS'IS_IPV6'
p258
S"<class 'gluon.validators.IS_IPV6'>"
p259
sS'XML'
p260
S"<class 'gluon.html.XML'>"
p261
sS'B'
S"<class 'gluon.html.B'>"
p262
sS'IMG'
p263
S"<class 'gluon.html.IMG'>"
p264
sS'SQLTABLE'
p265
S"<class 'gluon.sqlhtml.SQLTABLE'>"
p266
sS'IS_MATCH'
p267
S"<class 'gluon.validators.IS_MATCH'>"
p268
sS'IS_ALPHANUMERIC'
p269
S"<class 'gluon.validators.IS_ALPHANUMERIC'>"
p270
sS'SPAN'
p271
S"<class 'gluon.html.SPAN'>"
p272
sS'IS_JSON'
p273
S"<class 'gluon.validators.IS_JSON'>"
p274
sS'IS_IPADDRESS'
p275
S"<class 'gluon.validators.IS_IPADDRESS'>"
p276
sS'IS_SLUG'
p277
S"<class 'gluon.validators.IS_SLUG'>"
p278
sS'BEAUTIFY'
p279
S"<class 'gluon.html.BEAUTIFY'>"
p280
sS'META'
p281
S"<class 'gluon.html.META'>"
p282
sS'IS_DATE'
p283
S"<class 'gluon.validators.IS_DATE'>"
p284
sS'IS_EMAIL'
p285
S"<class 'gluon.validators.IS_EMAIL'>"
p286
sS'IS_NOT_EMPTY'
p287
S"<class 'gluon.validators.IS_NOT_EMPTY'>"
p288
sS'IS_FLOAT_IN_RANGE'
p289
S"<class 'gluon.validators.IS_FLOAT_IN_RANGE'>"
p290
sS'TBODY'
p291
S"<class 'gluon.html.TBODY'>"
p292
sS'CAT'
p293
S"<class 'gluon.html.CAT'>"
p294
sS'Field'
p295
S"<class 'pydal.objects.Field'>"
p296
sS'IS_LIST_OF_EMAILS'
p297
S"<class 'gluon.validators.IS_LIST_OF_EMAILS'>"
p298
sS'DIV'
p299
S"<class 'gluon.html.DIV'>"
p300
sS'LEGEND'
p301
S"<class 'gluon.html.LEGEND'>"
p302
sS'COLGROUP'
p303
S"<class 'gluon.html.COLGROUP'>"
p304
sS'DAL'
p305
S"<class 'pydal.base.DAL'>"
p306
sS'ASSIGNJS'
p307
S'<function ASSIGNJS>'
p308
sS'TR'
p309
S"<class 'gluon.html.TR'>"
p310
sS'LI'
p311
S"<class 'gluon.html.LI'>"
p312
sS'IFRAME'
p313
S"<class 'gluon.html.IFRAME'>"
p314
sS'TD'
p315
S"<class 'gluon.html.TD'>"
p316
sS'IS_URL'
p317
S"<class 'gluon.validators.IS_URL'>"
p318
sS'A'
S"<class 'gluon.html.A'>"
p319
sS'STYLE'
p320
S"<class 'gluon.html.STYLE'>"
p321
sS'IS_DATETIME_IN_RANGE'
p322
S"<class 'gluon.validators.IS_DATETIME_IN_RANGE'>"
p323
sS'IS_IMAGE'
p324
S"<class 'gluon.validators.IS_IMAGE'>"
p325
sS'I'
S"<class 'gluon.html.I'>"
p326
sS'IS_NOT_IN_DB'
p327
S"<class 'gluon.validators.IS_NOT_IN_DB'>"
p328
sg110
S"<Storage {'body': <cStringIO.StringO object at 0...a> at 0x29f8b9cc>, 'view': 'license/index.html'}>"
p329
sS'THEAD'
p330
S"<class 'gluon.html.THEAD'>"
p331
sS'ANY_OF'
p332
S"<class 'gluon.validators.ANY_OF'>"
p333
sS'IS_NULL_OR'
p334
S"<class 'gluon.validators.IS_EMPTY_OR'>"
p335
sg56
S"<Storage {'_vars': None, 'function': 'index', 'c...usr/nc-home/gap2py/web2py/applications/gap2py/'}>"
p336
sS'IS_EXPR'
p337
S"<class 'gluon.validators.IS_EXPR'>"
p338
sS'T'
S'<gluon.languages.translator object>'
p339
sS'IS_IN_SET'
p340
S"<class 'gluon.validators.IS_IN_SET'>"
p341
sS'IS_UPLOAD_FILENAME'
p342
S"<class 'gluon.validators.IS_UPLOAD_FILENAME'>"
p343
sS'TT'
p344
S"<class 'gluon.html.TT'>"
p345
sS'IS_DECIMAL_IN_RANGE'
p346
S"<class 'gluon.validators.IS_DECIMAL_IN_RANGE'>"
p347
sssS'traceback'
p348
S'Traceback (most recent call last):\n  File "/usr/nc-home/gap2py/web2py/gluon/restricted.py", line 227, in restricted\n    exec ccode in environment\n  File "/usr/nc-home/gap2py/web2py/applications/gap2py/views/license/index.html", line 4, in <module>\n    <title>\xe4\xb8\xad\xe7\xbd\x91\xe9\xa9\xb0\xe4\xba\x91\xe9\x98\xb2\xe7\x81\xab\xe5\xa2\x99</title>\nNameError: name \'mash\' is not defined\n'
p349
s.