(dp1
S'output'
p2
S"<type 'exceptions.NameError'> name 'username' is not defined"
p3
sS'layer'
p4
S'/usr/nc-home/gap2py/web2py/applications/gap2py/views/setting/index.html'
p5
sS'code'
p6
S'response.write(\'<!DOCTYPE html>\\n<html>\\n\\n\\n<head>\\n\\n    <meta charset="utf-8">\\n    <meta name="viewport" content="width=device-width, initial-scale=1.0">\\n\\n\\n    <title>\\n        \\xe4\\xb8\\xad\\xe7\\xbd\\x91\\xe9\\xa9\\xb0\\xe4\\xba\\x91\\xe9\\x9a\\x94\\xe7\\xa6\\xbb\\xe7\\xbd\\x91\\xe9\\x97\\xb8 WEB\\xe7\\xae\\xa1\\xe7\\x90\\x86\\n    </title>\\n    <link href="\', escape=False)\nresponse.write(URL(\'static\',\'favicon.ico\'))\nresponse.write(\'" rel="shortcut icon" type="image/x-icon">\\n    <link href="\', escape=False)\nresponse.write(URL(\'static\',\'favicon.ico\'))\nresponse.write(\'" rel="icon" type="image/x-icon">\\n    <link href="\', escape=False)\nresponse.write(URL(\'static\',\'css/bootstrap.min.css\'))\nresponse.write(\'" rel="stylesheet">\\n    <link href="\', escape=False)\nresponse.write(URL(\'static\',\'font-awesome/css/font-awesome.css\'))\nresponse.write(\'" rel="stylesheet">\\n    <!-- Sweet Alert -->\\n    <link href="\', escape=False)\nresponse.write(URL(\'static\',\'css/plugins/sweetalert/sweetalert.css\'))\nresponse.write(\'" rel="stylesheet">\\n    <link href="\', escape=False)\nresponse.write(URL(\'static\',\'css/animate.css\'))\nresponse.write(\'" rel="stylesheet">\\n    <link href="\', escape=False)\nresponse.write(URL(\'static\',\'css/style.css\'))\nresponse.write(\'" rel="stylesheet">\\n\\n</head>\\n<body class="" data-spy="scroll" data-target=".navbar-example">\\n\\n<div id="wrapper">\\n\\n    <nav class="navbar-default navbar-static-side navbar-example" role="navigation">\\n    <div class="sidebar-collapse">\\n            <ul class="nav metismenu">\\n                <li class="nav-header">\\n                    <div class="dropdown profile-element" style="text-align: center"> <span><a href="/gap2py/setting/">\\n                            <img alt="image" class="img-circle" style="height: 45px"\\n                                 src="\', escape=False)\nresponse.write(URL(\'static\',\'img/admin.png\'))\nresponse.write(\'"/></a>\\n                             </span>\\n                        <a data-toggle="dropdown" class="dropdown-toggle" href="#">\\n                            <span class="clear"> <span class="block m-t-xs"> <strong class="font-bold">\\xe6\\xac\\xa2\\xe8\\xbf\\x8e\\xe7\\x99\\xbb\\xe9\\x99\\x86</strong>\\n                             </span> <span class="text-muted text-xs block">\', escape=False)\nresponse.write(username)\nresponse.write(\' <b\\n                                    class="caret"></b></span> </span> </a>\\n                        <ul class="dropdown-menu animated fadeInRight m-t-xs">\\n                            <li><a href="#"\\n                                   onclick="$(\\\'#oldpass\\\').focus();swal({ title: \\\'\\xe4\\xbf\\xae\\xe6\\x94\\xb9\\xe5\\xaf\\x86\\xe7\\xa0\\x81\\\', text: \\\'\\xe5\\x8f\\xb3\\xe4\\xb8\\x8b\\xe8\\xa7\\x92\\xe8\\xbe\\x93\\xe5\\x85\\xa5\\xe6\\x97\\xa7\\xe5\\xaf\\x86\\xe7\\xa0\\x81\\xe5\\x92\\x8c\\xe6\\x96\\xb0\\xe5\\xaf\\x86\\xe7\\xa0\\x81\\\' });">\\xe4\\xbf\\xae\\xe6\\x94\\xb9\\xe5\\xaf\\x86\\xe7\\xa0\\x81</a>\\n                                <!--<li><a href="mailbox.html">Mailbox</a></li>-->\\n                            <li class="divider"></li>\\n                            <li><a href="/gap2py/login/logout/">\\xe7\\x99\\xbb\\xe5\\x87\\xba</a></li>\\n                        </ul>\\n                    </div>\\n                    <div class="logo-element">\\n                        \\xe4\\xb8\\xad\\xe7\\xbd\\x91\\n                    </div>\\n                </li>\\n\\n            </ul>\\n        </div>\\n    </nav>\\n\\n    <div id="page-wrapper" class="gray-bg">\\n        <div class="row border-bottom" id="top">\\n            <nav class="navbar navbar-static-top  " role="navigation" style="margin-bottom: 0">\\n                <div class="navbar-header">\\n                    <a class="navbar-minimalize minimalize-styl-2 btn btn-primary " href="#"><i\\n                            class="fa fa-bars"></i>\\n                    </a>\\n                </div>\\n                <ul class="nav navbar-top-links navbar-right">\\n                    <li>\\n                        <span class="m-r-sm text-muted welcome-message">\\xe4\\xb8\\xad\\xe7\\xbd\\x91\\xe9\\xa9\\xb0\\xe4\\xba\\x91\\xe9\\x9a\\x94\\xe7\\xa6\\xbb\\xe7\\xbd\\x91\\xe9\\x97\\xb8WEB\\xe7\\xae\\xa1\\xe7\\x90\\x86 </span><code>v6.99</code>\\n                    </li>\\n                    <li class="dropdown">\\n                        <a class="dropdown-toggle count-info" data-toggle="dropdown" href="#">\\n                            <i class="fa fa-bell"></i> <span class="label label-primary" id="nr_tip"></span>\\n                        </a>\\n                        <ul class="dropdown-menu dropdown-alerts">\\n                            <li>\\n                                <div class="text-center link-block">\\n                                    <strong id="nr_info">\\xe6\\xb2\\xa1\\xe6\\x9c\\x89\\xe4\\xbb\\xbb\\xe4\\xbd\\x95\\xe6\\x8f\\x90\\xe9\\x86\\x92</strong>\\n                                </div>\\n                            </li>\\n                        </ul>\\n                    </li>\\n                    <li>\\n                        <a href="/gap2py/login/logout/">\\n                            <i class="fa fa-sign-out"></i> \\xe6\\xb3\\xa8\\xe9\\x94\\x80\\n                        </a>\\n                    </li>\\n                </ul>\\n            </nav>\\n        </div>\\n        <div class="wrapper wrapper-content animated fadeInRight">\\n            <div class="row">\\n                <div class="col-lg-12">\\n                    <div class="ibox float-e-margins">\\n                        <div class="ibox-content">\\n                            <form method="get" class="form-horizontal">\\n                                <div class="form-group"><label class="col-sm-2 control-label">\\xe5\\xbd\\x93\\xe5\\x89\\x8d\\xe6\\xa8\\xa1\\xe5\\xbc\\x8f</label>\\n\\n                                    <div class="col-sm-6"><select class="form-control m-b" name="ct" id="ct"\\n                                                                  disabled="disabled">\\n                                        <option value="0">nat</option>\\n                                        <option value="1">owd</option>\\n                                    </select>\\n                                    </div>\\n                                </div>\\n                                <div class="form-group"><label class="col-sm-2 control-label">\\xe5\\xbd\\x93\\xe5\\x89\\x8d\\xe6\\xad\\xa3\\xe5\\x8f\\x8d\\xe5\\x90\\x91</label>\\n\\n                                    <div class="col-sm-6"><select class="form-control m-b" name="cd" id="cd"\\n                                                                  disabled="disabled">\\n                                        <option value="0">\\xe5\\x8f\\x8c\\xe5\\x90\\x91</option>\\n                                        <option value="1">\\xe6\\xad\\xa3\\xe5\\x90\\x91</option>\\n                                        <option value="2">\\xe5\\x8f\\x8d\\xe5\\x90\\x91</option>\\n                                    </select>\\n                                    </div>\\n                                </div>\\n\\n                                <br>\\n                                <hr>\\n                                <div class="form-group"><label class="col-sm-2 control-label">\\xe9\\x87\\x8d\\xe5\\x90\\xaf\\xe5\\x90\\x8e\\xe6\\xa8\\xa1\\xe5\\xbc\\x8f</label>\\n\\n                                    <div class="col-sm-6"><select class="form-control m-b" name="rt" id="rt"\\n                                                                  disabled="disabled">\\n                                        <option value="0">nat</option>\\n                                        <option value="1">owd</option>\\n                                    </select>\\n                                    </div>\\n                                </div>\\n                                <div class="form-group"><label class="col-sm-2 control-label">\\xe9\\x87\\x8d\\xe5\\x90\\xaf\\xe5\\x90\\x8e\\xe6\\xad\\xa3\\xe5\\x8f\\x8d\\xe5\\x90\\x91</label>\\n\\n                                    <div class="col-sm-6"><select class="form-control m-b" name="rd" id="rd"\\n                                                                  disabled="disabled">\\n                                        <option value="0">\\xe5\\x8f\\x8c\\xe5\\x90\\x91</option>\\n                                        <option value="1">\\xe6\\xad\\xa3\\xe5\\x90\\x91</option>\\n                                        <option value="2">\\xe5\\x8f\\x8d\\xe5\\x90\\x91</option>\\n                                    </select>\\n                                    </div>\\n                                </div>\\n\\n                                <br>\\n                                <hr>\\n\\n                                <div class="form-group"><label class="col-sm-2 control-label">\\xe6\\x9b\\xb4\\xe6\\x94\\xb9\\xe6\\xa8\\xa1\\xe5\\xbc\\x8f</label>\\n\\n                                    <div class="col-sm-6"><select class="form-control m-b" name="nct" id="nct">\\n                                        <option value="-1">\\xe4\\xb8\\x8d\\xe6\\x9b\\xb4\\xe6\\x94\\xb9</option>\\n                                        <option value="0">nat</option>\\n                                        <option value="1">owd</option>\\n                                    </select>\\n                                    </div>\\n                                </div>\\n\\n                                <div class="form-group"><label class="col-sm-2 control-label">\\xe6\\x9b\\xb4\\xe6\\x94\\xb9\\xe6\\xad\\xa3\\xe5\\x8f\\x8d\\xe5\\x90\\x91</label>\\n\\n                                    <div class="col-sm-6"><select class="form-control m-b" name="ncd" id="ncd">\\n                                        <option value="-1">\\xe4\\xb8\\x8d\\xe6\\x9b\\xb4\\xe6\\x94\\xb9</option>\\n                                        <option value="0">\\xe5\\x8f\\x8c\\xe5\\x90\\x91</option>\\n                                        <option value="1">\\xe6\\xad\\xa3\\xe5\\x90\\x91</option>\\n                                        <option value="2">\\xe5\\x8f\\x8d\\xe5\\x90\\x91</option>\\n                                    </select>\\n                                    </div>\\n                                </div>\\n                                <div class="hr-line-dashed"></div>\\n                                <div class="form-group">\\n                                    <div class="col-sm-6  col-sm-offset-6">\\n                                        <a href="javascript:void(0)" id="reload" class="btn btn-warning">\\xe9\\x87\\x8d\\xe5\\x90\\xaf</a>\\n                                        <a href="javascript:void(0)" id="shutdown" class="btn btn-warning">\\xe5\\x85\\xb3\\xe6\\x9c\\xba</a>\\n                                        <a href="javascript:void(0)" id="save" class="btn btn-primary">\\xe5\\xba\\x94\\xe7\\x94\\xa8</a>\\n                                    </div>\\n                                </div>\\n                            </form>\\n                        </div>\\n                    </div>\\n                </div>\\n            </div>\\n        </div>\\n        <div class="footer">\\n            <div>\\n                <strong>\\xe7\\x89\\x88\\xe6\\x9d\\x83\\xe6\\x89\\x80\\xe6\\x9c\\x89</strong> \\xe4\\xb8\\x8a\\xe6\\xb5\\xb7\\xe4\\xb8\\xad\\xe7\\xbd\\x91\\xe7\\xbd\\x91\\xe7\\xbb\\x9c\\xe5\\xae\\x89\\xe5\\x85\\xa8\\xe6\\x8a\\x80\\xe6\\x9c\\xaf\\xe6\\x9c\\x89\\xe9\\x99\\x90\\xe5\\x85\\xac\\xe5\\x8f\\xb8 &copy; 2014-2016\\n            </div>\\n        </div>\\n    </div>\\n</div>\\n\\n\\n<!-- Mainly scripts -->\\n<script src="\', escape=False)\nresponse.write(URL(\'static\',\'js/jquery-2.1.1.js\'))\nresponse.write(\'"></script>\\n<script src="\', escape=False)\nresponse.write(URL(\'static\',\'js/bootstrap.min.js\'))\nresponse.write(\'"></script>\\n<script src="\', escape=False)\nresponse.write(URL(\'static\',\'js/plugins/metisMenu/jquery.metisMenu.js\'))\nresponse.write(\'"></script>\\n<script src="\', escape=False)\nresponse.write(URL(\'static\',\'js/plugins/slimscroll/jquery.slimscroll.min.js\'))\nresponse.write(\'"></script>\\n<script src="\', escape=False)\nresponse.write(URL(\'static\',\'js/plugins/jasny/jasny-bootstrap.min.js\'))\nresponse.write(\'"></script>\\n\\n\\n<!-- Custom and plugin javascript -->\\n<script src="\', escape=False)\nresponse.write(URL(\'static\',\'js/inspinia.js\'))\nresponse.write(\'"></script>\\n<script src="\', escape=False)\nresponse.write(URL(\'static\',\'js/plugins/pace/pace.min.js\'))\nresponse.write(\'"></script>\\n<script src="\', escape=False)\nresponse.write(URL(\'static\',\'js/jSing.min.js\'))\nresponse.write(\'"></script>\\n<script src="\', escape=False)\nresponse.write(URL(\'static\',\'js/json2.min.js\'))\nresponse.write(\'"></script>\\n\\n\\n<script src="\', escape=False)\nresponse.write(URL(\'static\',\'js/plugins/sweetalert/sweetalert.min.js\'))\nresponse.write(\'"></script>\\n\\n<script src="\', escape=False)\nresponse.write(URL(\'static\',\'js/settings.js\'))\nresponse.write(\'"></script>\\n\\n\\n</body>\\n\\n\\n</html>\\n\', escape=False)'
p7
sS'snapshot'
p8
(dp9
S'exception'
p10
(dp11
S'__hash__'
p12
S"<method-wrapper '__hash__' of exceptions.NameError object>"
p13
sS'__setattr__'
p14
S"<method-wrapper '__setattr__' of exceptions.NameError object>"
p15
sS'__reduce_ex__'
p16
S'<built-in method __reduce_ex__ of exceptions.NameError object>'
p17
sS'__getslice__'
p18
S"<method-wrapper '__getslice__' of exceptions.NameError object>"
p19
sS'__getitem__'
p20
S"<method-wrapper '__getitem__' of exceptions.NameError object>"
p21
sS'__setstate__'
p22
S'<built-in method __setstate__ of exceptions.NameError object>'
p23
sS'__reduce__'
p24
S'<built-in method __reduce__ of exceptions.NameError object>'
p25
sS'__str__'
p26
S"<method-wrapper '__str__' of exceptions.NameError object>"
p27
sS'__format__'
p28
S'<built-in method __format__ of exceptions.NameError object>'
p29
sS'__getattribute__'
p30
S"<method-wrapper '__getattribute__' of exceptions.NameError object>"
p31
sS'__class__'
p32
S"<type 'exceptions.NameError'>"
p33
sS'__unicode__'
p34
S'<built-in method __unicode__ of exceptions.NameError object>'
p35
sS'__delattr__'
p36
S"<method-wrapper '__delattr__' of exceptions.NameError object>"
p37
sS'__subclasshook__'
p38
S'<built-in method __subclasshook__ of type object>'
p39
sS'__repr__'
p40
S"<method-wrapper '__repr__' of exceptions.NameError object>"
p41
sS'args'
p42
S'("name \'username\' is not defined",)'
p43
sS'__dict__'
p44
S'{}'
p45
sS'__sizeof__'
p46
S'<built-in method __sizeof__ of exceptions.NameError object>'
p47
sS'__doc__'
p48
S"'Name not found globally.'"
p49
sS'__init__'
p50
S"<method-wrapper '__init__' of exceptions.NameError object>"
p51
sS'__new__'
p52
S'<built-in method __new__ of type object>'
p53
ssS'evalue'
p54
S"name 'username' is not defined"
p55
sS'request'
p56
cgluon.html
XML_unpickle
p57
(S's\x8b^\x00\x00<div><table><tr><td style="font-weight:bold;vertical-align:top;">ajax</td><td style="vertical-align:top;">:</td><td><div>False</div></td></tr><tr><td style="font-weight:bold;vertical-align:top;">application</td><td style="vertical-align:top;">:</td><td><div>gap2py</div></td></tr><tr><td style="font-weight:bold;vertical-align:top;">args</td><td style="vertical-align:top;">:</td><td><div><table></table></div></td></tr><tr><td style="font-weight:bold;vertical-align:top;">cid</td><td style="vertical-align:top;">:</td><td><div>None</div></td></tr><tr><td style="font-weight:bold;vertical-align:top;">client</td><td style="vertical-align:top;">:</td><td><div>192.168.2.160</div></td></tr><tr><td style="font-weight:bold;vertical-align:top;">controller</td><td style="vertical-align:top;">:</td><td><div>setting</div></td></tr><tr><td style="font-weight:bold;vertical-align:top;">cookies</td><td style="vertical-align:top;">:</td><td><div><table><tr><td style="font-weight:bold;vertical-align:top;">session</td><td style="vertical-align:top;">:</td><td><div>eyJ1c2VyIjp7IiBiIjoiWVdSdGFXND0ifX0.CpC1uw.1vcuU5lTEJwtzRBMJtWYXZFqIT4<table><tr><td style="font-weight:bold;vertical-align:top;">comment</td><td style="vertical-align:top;">:</td><td><div></div></td></tr><tr><td style="font-weight:bold;vertical-align:top;">domain</td><td style="vertical-align:top;">:</td><td><div></div></td></tr><tr><td style="font-weight:bold;vertical-align:top;">expires</td><td style="vertical-align:top;">:</td><td><div></div></td></tr><tr><td style="font-weight:bold;vertical-align:top;">httponly</td><td style="vertical-align:top;">:</td><td><div></div></td></tr><tr><td style="font-weight:bold;vertical-align:top;">max-age</td><td style="vertical-align:top;">:</td><td><div></div></td></tr><tr><td style="font-weight:bold;vertical-align:top;">path</td><td style="vertical-align:top;">:</td><td><div></div></td></tr><tr><td style="font-weight:bold;vertical-align:top;">secure</td><td style="vertical-align:top;">:</td><td><div></div></td></tr><tr><td style="font-weight:bold;vertical-align:top;">version</td><td style="vertical-align:top;">:</td><td><div></div></td></tr></table></div></td></tr><tr><td style="font-weight:bold;vertical-align:top;">session_id_admin</td><td style="vertical-align:top;">:</td><td><div>192.168.2.160-e0633b69-df46-418e-9939-f90dbd40a34a<table><tr><td style="font-weight:bold;vertical-align:top;">comment</td><td style="vertical-align:top;">:</td><td><div></div></td></tr><tr><td style="font-weight:bold;vertical-align:top;">domain</td><td style="vertical-align:top;">:</td><td><div></div></td></tr><tr><td style="font-weight:bold;vertical-align:top;">expires</td><td style="vertical-align:top;">:</td><td><div></div></td></tr><tr><td style="font-weight:bold;vertical-align:top;">httponly</td><td style="vertical-align:top;">:</td><td><div></div></td></tr><tr><td style="font-weight:bold;vertical-align:top;">max-age</td><td style="vertical-align:top;">:</td><td><div></div></td></tr><tr><td style="font-weight:bold;vertical-align:top;">path</td><td style="vertical-align:top;">:</td><td><div></div></td></tr><tr><td style="font-weight:bold;vertical-align:top;">secure</td><td style="vertical-align:top;">:</td><td><div></div></td></tr><tr><td style="font-weight:bold;vertical-align:top;">version</td><td style="vertical-align:top;">:</td><td><div></div></td></tr></table></div></td></tr><tr><td style="font-weight:bold;vertical-align:top;">session_id_gap2py</td><td style="vertical-align:top;">:</td><td><div>192.168.2.160-c448d3ca-ec99-4bba-a9ab-8b15614e27e1<table><tr><td style="font-weight:bold;vertical-align:top;">comment</td><td style="vertical-align:top;">:</td><td><div></div></td></tr><tr><td style="font-weight:bold;vertical-align:top;">domain</td><td style="vertical-align:top;">:</td><td><div></div></td></tr><tr><td style="font-weight:bold;vertical-align:top;">expires</td><td style="vertical-align:top;">:</td><td><div></div></td></tr><tr><td style="font-weight:bold;vertical-align:top;">httponly</td><td style="vertical-align:top;">:</td><td><div></div></td></tr><tr><td style="font-weight:bold;vertical-align:top;">max-age</td><td style="vertical-align:top;">:</td><td><div></div></td></tr><tr><td style="font-weight:bold;vertical-align:top;">path</td><td style="vertical-align:top;">:</td><td><div></div></td></tr><tr><td style="font-weight:bold;vertical-align:top;">secure</td><td style="vertical-align:top;">:</td><td><div></div></td></tr><tr><td style="font-weight:bold;vertical-align:top;">version</td><td style="vertical-align:top;">:</td><td><div></div></td></tr></table></div></td></tr></table></div></td></tr><tr><td style="font-weight:bold;vertical-align:top;">env</td><td style="vertical-align:top;">:</td><td><div><table><tr><td style="font-weight:bold;vertical-align:top;">HTTPS</td><td style="vertical-align:top;">:</td><td><div>on</div></td></tr><tr><td style="font-weight:bold;vertical-align:top;">HTTP_ACCEPT</td><td style="vertical-align:top;">:</td><td><div>text/html,application/xhtml+xml,application/xml;q=0.9,image/webp,*/*;q=0.8</div></td></tr><tr><td style="font-weight:bold;vertical-align:top;">HTTP_ACCEPT_ENCODING</td><td style="vertical-align:top;">:</td><td><div>gzip, deflate, sdch</div></td></tr><tr><td style="font-weight:bold;vertical-align:top;">HTTP_ACCEPT_LANGUAGE</td><td style="vertical-align:top;">:</td><td><div>zh-CN,zh;q=0.8</div></td></tr><tr><td style="font-weight:bold;vertical-align:top;">HTTP_CACHE_CONTROL</td><td style="vertical-align:top;">:</td><td><div>max-age=0</div></td></tr><tr><td style="font-weight:bold;vertical-align:top;">HTTP_CONNECTION</td><td style="vertical-align:top;">:</td><td><div>keep-alive</div></td></tr><tr><td style="font-weight:bold;vertical-align:top;">HTTP_COOKIE</td><td style="vertical-align:top;">:</td><td><div>session=eyJ1c2VyIjp7IiBiIjoiWVdSdGFXND0ifX0.CpC1uw.1vcuU5lTEJwtzRBMJtWYXZFqIT4; session_id_gap2py=192.168.2.160-c448d3ca-ec99-4bba-a9ab-8b15614e27e1; session_id_admin=192.168.2.160-e0633b69-df46-418e-9939-f90dbd40a34a</div></td></tr><tr><td style="font-weight:bold;vertical-align:top;">HTTP_HOST</td><td style="vertical-align:top;">:</td><td><div>192.168.2.114:8000</div></td></tr><tr><td style="font-weight:bold;vertical-align:top;">HTTP_REFERER</td><td style="vertical-align:top;">:</td><td><div>https://192.168.2.114:8000/gap2py/login/index</div></td></tr><tr><td style="font-weight:bold;vertical-align:top;">HTTP_UPGRADE_INSECURE_REQUESTS</td><td style="vertical-align:top;">:</td><td><div>1</div></td></tr><tr><td style="font-weight:bold;vertical-align:top;">HTTP_USER_AGENT</td><td style="vertical-align:top;">:</td><td><div>Mozilla/5.0 (Macintosh; Intel Mac OS X 10_11_6) AppleWebKit/537.36 (KHTML, like Gecko) Chrome/49.0.2623.110 Safari/537.36</div></td></tr><tr><td style="font-weight:bold;vertical-align:top;">PATH_INFO</td><td style="vertical-align:top;">:</td><td><div>/gap2py/setting/index</div></td></tr><tr><td style="font-weight:bold;vertical-align:top;">QUERY_STRING</td><td style="vertical-align:top;">:</td><td><div></div></td></tr><tr><td style="font-weight:bold;vertical-align:top;">REMOTE_ADDR</td><td style="vertical-align:top;">:</td><td><div>192.168.2.160</div></td></tr><tr><td style="font-weight:bold;vertical-align:top;">REMOTE_PORT</td><td style="vertical-align:top;">:</td><td><div>58389</div></td></tr><tr><td style="font-weight:bold;vertical-align:top;">REQUEST_METHOD</td><td style="vertical-align:top;">:</td><td><div>GET</div></td></tr><tr><td style="font-weight:bold;vertical-align:top;">SCRIPT_NAME</td><td style="vertical-align:top;">:</td><td><div></div></td></tr><tr><td style="font-weight:bold;vertical-align:top;">SERVER_NAME</td><td style="vertical-align:top;">:</td><td><div>MFIA</div></td></tr><tr><td style="font-weight:bold;vertical-align:top;">SERVER_PORT</td><td style="vertical-align:top;">:</td><td><div>8000</div></td></tr><tr><td style="font-weight:bold;vertical-align:top;">SERVER_PROTOCOL</td><td style="vertical-align:top;">:</td><td><div>HTTP/1.1</div></td></tr><tr><td style="font-weight:bold;vertical-align:top;">SERVER_SOFTWARE</td><td style="vertical-align:top;">:</td><td><div>Rocket 1.2.6</div></td></tr><tr><td style="font-weight:bold;vertical-align:top;">SSL_CLIENT_RAW_CERT</td><td style="vertical-align:top;">:</td><td><div>None</div></td></tr><tr><td style="font-weight:bold;vertical-align:top;">app_folders</td><td style="vertical-align:top;">:</td><td><div>set([&#x27;/usr/nc-home/gap2py/web2py/applications/admin/&#x27;, &#x27;/usr/nc-home/gap2py/web2py/applications/gap2py/&#x27;])</div></td></tr><tr><td style="font-weight:bold;vertical-align:top;">applications_parent</td><td style="vertical-align:top;">:</td><td><div>/usr/nc-home/gap2py/web2py</div></td></tr><tr><td style="font-weight:bold;vertical-align:top;">cmd_args</td><td style="vertical-align:top;">:</td><td><div><table></table></div></td></tr><tr><td style="font-weight:bold;vertical-align:top;">cmd_options</td><td style="vertical-align:top;">:</td><td><div>&lt;Values at 0x2921258c: {&#x27;verbose&#x27;: False, &#x27;ip&#x27;: &#x27;192.168.2.114&#x27;, &#x27;debuglevel&#x27;: 30, &#x27;with_scheduler&#x27;: False, &#x27;shutdown_timeout&#x27;: 5, &#x27;taskbar&#x27;: False, &#x27;with_coverage&#x27;: False, &#x27;pid_filename&#x27;: &#x27;httpserver.pid&#x27;, &#x27;maxthreads&#x27;: None, &#x27;softcron&#x27;: False, &#x27;server_name&#x27;: &#x27;MFIA&#x27;, &#x27;bpython&#x27;: False, &#x27;nogui&#x27;: False, &#x27;port&#x27;: 8000, &#x27;print_errors&#x27;: False, &#x27;extcron&#x27;: False, &#x27;runcron&#x27;: False, &#x27;run_system_tests&#x27;: False, &#x27;test&#x27;: None, &#x27;folder&#x27;: &#x27;/usr/nc-home/gap2py/web2py&#x27;, &#x27;config&#x27;: &#x27;&#x27;, &#x27;minthreads&#x27;: None, &#x27;shell&#x27;: None, &#x27;run&#x27;: &#x27;&#x27;, &#x27;log_filename&#x27;: &#x27;httpserver.log&#x27;, &#x27;profiler_dir&#x27;: None, &#x27;args&#x27;: [&#x27;&#x27;], &#x27;socket_timeout&#x27;: 5, &#x27;ssl_ca_certificate&#x27;: None, &#x27;scheduler&#x27;: None, &#x27;interfaces&#x27;: None, &#x27;ssl_private_key&#x27;: &#x27;server.key&#x27;, &#x27;gae&#x27;: None, &#x27;password&#x27;: &#x27;******&#x27;, &#x27;request_queue_size&#x27;: 5, &#x27;ssl_certificate&#x27;: &#x27;server.crt&#x27;, &#x27;cronjob&#x27;: False, &#x27;numthreads&#x27;: None, &#x27;quiet&#x27;: False, &#x27;import_models&#x27;: False, &#x27;timeout&#x27;: 10, &#x27;plain&#x27;: False, &#x27;nobanner&#x27;: False}&gt;</div></td></tr><tr><td style="font-weight:bold;vertical-align:top;">db_sessions</td><td style="vertical-align:top;">:</td><td><div>set([])</div></td></tr><tr><td style="font-weight:bold;vertical-align:top;">debugging</td><td style="vertical-align:top;">:</td><td><div>True</div></td></tr><tr><td style="font-weight:bold;vertical-align:top;">gluon_parent</td><td style="vertical-align:top;">:</td><td><div>/usr/nc-home/gap2py/web2py</div></td></tr><tr><td style="font-weight:bold;vertical-align:top;">http_accept</td><td style="vertical-align:top;">:</td><td><div>text/html,application/xhtml+xml,application/xml;q=0.9,image/webp,*/*;q=0.8</div></td></tr><tr><td style="font-weight:bold;vertical-align:top;">http_accept_encoding</td><td style="vertical-align:top;">:</td><td><div>gzip, deflate, sdch</div></td></tr><tr><td style="font-weight:bold;vertical-align:top;">http_accept_language</td><td style="vertical-align:top;">:</td><td><div>zh-CN,zh;q=0.8</div></td></tr><tr><td style="font-weight:bold;vertical-align:top;">http_cache_control</td><td style="vertical-align:top;">:</td><td><div>max-age=0</div></td></tr><tr><td style="font-weight:bold;vertical-align:top;">http_connection</td><td style="vertical-align:top;">:</td><td><div>keep-alive</div></td></tr><tr><td style="font-weight:bold;vertical-align:top;">http_cookie</td><td style="vertical-align:top;">:</td><td><div>session=eyJ1c2VyIjp7IiBiIjoiWVdSdGFXND0ifX0.CpC1uw.1vcuU5lTEJwtzRBMJtWYXZFqIT4; session_id_gap2py=192.168.2.160-c448d3ca-ec99-4bba-a9ab-8b15614e27e1; session_id_admin=192.168.2.160-e0633b69-df46-418e-9939-f90dbd40a34a</div></td></tr><tr><td style="font-weight:bold;vertical-align:top;">http_host</td><td style="vertical-align:top;">:</td><td><div>192.168.2.114:8000</div></td></tr><tr><td style="font-weight:bold;vertical-align:top;">http_referer</td><td style="vertical-align:top;">:</td><td><div>https://192.168.2.114:8000/gap2py/login/index</div></td></tr><tr><td style="font-weight:bold;vertical-align:top;">http_upgrade_insecure_requests</td><td style="vertical-align:top;">:</td><td><div>1</div></td></tr><tr><td style="font-weight:bold;vertical-align:top;">http_user_agent</td><td style="vertical-align:top;">:</td><td><div>Mozilla/5.0 (Macintosh; Intel Mac OS X 10_11_6) AppleWebKit/537.36 (KHTML, like Gecko) Chrome/49.0.2623.110 Safari/537.36</div></td></tr><tr><td style="font-weight:bold;vertical-align:top;">https</td><td style="vertical-align:top;">:</td><td><div>on</div></td></tr><tr><td style="font-weight:bold;vertical-align:top;">is_jython</td><td style="vertical-align:top;">:</td><td><div>False</div></td></tr><tr><td style="font-weight:bold;vertical-align:top;">is_pypy</td><td style="vertical-align:top;">:</td><td><div>False</div></td></tr><tr><td style="font-weight:bold;vertical-align:top;">is_source</td><td style="vertical-align:top;">:</td><td><div>True</div></td></tr><tr><td style="font-weight:bold;vertical-align:top;">local_hosts</td><td style="vertical-align:top;">:</td><td><div><table><tr><td><div>::1</div></td></tr><tr><td><div>MFIA</div></td></tr><tr><td><div>192.168.2.114</div></td></tr><tr><td><div>::ffff:127.0.0.1</div></td></tr><tr><td><div>127.0.0.1</div></td></tr></table></div></td></tr><tr><td style="font-weight:bold;vertical-align:top;">path_info</td><td style="vertical-align:top;">:</td><td><div>/gap2py/setting/index</div></td></tr><tr><td style="font-weight:bold;vertical-align:top;">query_string</td><td style="vertical-align:top;">:</td><td><div></div></td></tr><tr><td style="font-weight:bold;vertical-align:top;">remote_addr</td><td style="vertical-align:top;">:</td><td><div>192.168.2.160</div></td></tr><tr><td style="font-weight:bold;vertical-align:top;">remote_port</td><td style="vertical-align:top;">:</td><td><div>58389</div></td></tr><tr><td style="font-weight:bold;vertical-align:top;">request_method</td><td style="vertical-align:top;">:</td><td><div>GET</div></td></tr><tr><td style="font-weight:bold;vertical-align:top;">request_uri</td><td style="vertical-align:top;">:</td><td><div>/gap2py/setting/index</div></td></tr><tr><td style="font-weight:bold;vertical-align:top;">script_name</td><td style="vertical-align:top;">:</td><td><div></div></td></tr><tr><td style="font-weight:bold;vertical-align:top;">server_name</td><td style="vertical-align:top;">:</td><td><div>MFIA</div></td></tr><tr><td style="font-weight:bold;vertical-align:top;">server_port</td><td style="vertical-align:top;">:</td><td><div>8000</div></td></tr><tr><td style="font-weight:bold;vertical-align:top;">server_protocol</td><td style="vertical-align:top;">:</td><td><div>HTTP/1.1</div></td></tr><tr><td style="font-weight:bold;vertical-align:top;">server_software</td><td style="vertical-align:top;">:</td><td><div>Rocket 1.2.6</div></td></tr><tr><td style="font-weight:bold;vertical-align:top;">ssl_client_raw_cert</td><td style="vertical-align:top;">:</td><td><div>None</div></td></tr><tr><td style="font-weight:bold;vertical-align:top;">web2py_path</td><td style="vertical-align:top;">:</td><td><div>/usr/nc-home/gap2py/web2py</div></td></tr><tr><td style="font-weight:bold;vertical-align:top;">web2py_version</td><td style="vertical-align:top;">:</td><td><div>2.14.6-stable+timestamp.2016.05.10.00.21.47</div></td></tr><tr><td style="font-weight:bold;vertical-align:top;">wsgi.errors</td><td style="vertical-align:top;">:</td><td><div>&lt;open file &#x27;&lt;stderr&gt;&#x27;, mode &#x27;w&#x27; at 0x2833a0d0&gt;</div></td></tr><tr><td style="font-weight:bold;vertical-align:top;">wsgi.file_wrapper</td><td style="vertical-align:top;">:</td><td><div>&lt;class wsgiref.util.FileWrapper at 0x291a598c&gt;</div></td></tr><tr><td style="font-weight:bold;vertical-align:top;">wsgi.input</td><td style="vertical-align:top;">:</td><td><div>&lt;socket._fileobject object at 0x2a13912c&gt;</div></td></tr><tr><td style="font-weight:bold;vertical-align:top;">wsgi.multiprocess</td><td style="vertical-align:top;">:</td><td><div>False</div></td></tr><tr><td style="font-weight:bold;vertical-align:top;">wsgi.multithread</td><td style="vertical-align:top;">:</td><td><div>True</div></td></tr><tr><td style="font-weight:bold;vertical-align:top;">wsgi.run_once</td><td style="vertical-align:top;">:</td><td><div>False</div></td></tr><tr><td style="font-weight:bold;vertical-align:top;">wsgi.url_scheme</td><td style="vertical-align:top;">:</td><td><div>https</div></td></tr><tr><td style="font-weight:bold;vertical-align:top;">wsgi.version</td><td style="vertical-align:top;">:</td><td><div><table><tr><td><div>1</div></td></tr><tr><td><div>0</div></td></tr></table></div></td></tr><tr><td style="font-weight:bold;vertical-align:top;">wsgi_errors</td><td style="vertical-align:top;">:</td><td><div>&lt;open file &#x27;&lt;stderr&gt;&#x27;, mode &#x27;w&#x27; at 0x2833a0d0&gt;</div></td></tr><tr><td style="font-weight:bold;vertical-align:top;">wsgi_file_wrapper</td><td style="vertical-align:top;">:</td><td><div>&lt;class wsgiref.util.FileWrapper at 0x291a598c&gt;</div></td></tr><tr><td style="font-weight:bold;vertical-align:top;">wsgi_input</td><td style="vertical-align:top;">:</td><td><div>&lt;socket._fileobject object at 0x2a13912c&gt;</div></td></tr><tr><td style="font-weight:bold;vertical-align:top;">wsgi_multiprocess</td><td style="vertical-align:top;">:</td><td><div>False</div></td></tr><tr><td style="font-weight:bold;vertical-align:top;">wsgi_multithread</td><td style="vertical-align:top;">:</td><td><div>True</div></td></tr><tr><td style="font-weight:bold;vertical-align:top;">wsgi_run_once</td><td style="vertical-align:top;">:</td><td><div>False</div></td></tr><tr><td style="font-weight:bold;vertical-align:top;">wsgi_url_scheme</td><td style="vertical-align:top;">:</td><td><div>https</div></td></tr><tr><td style="font-weight:bold;vertical-align:top;">wsgi_version</td><td style="vertical-align:top;">:</td><td><div><table><tr><td><div>1</div></td></tr><tr><td><div>0</div></td></tr></table></div></td></tr></table></div></td></tr><tr><td style="font-weight:bold;vertical-align:top;">extension</td><td style="vertical-align:top;">:</td><td><div>html</div></td></tr><tr><td style="font-weight:bold;vertical-align:top;">folder</td><td style="vertical-align:top;">:</td><td><div>/usr/nc-home/gap2py/web2py/applications/gap2py/</div></td></tr><tr><td style="font-weight:bold;vertical-align:top;">function</td><td style="vertical-align:top;">:</td><td><div>index</div></td></tr><tr><td style="font-weight:bold;vertical-align:top;">global_settings</td><td style="vertical-align:top;">:</td><td><div><table><tr><td style="font-weight:bold;vertical-align:top;">app_folders</td><td style="vertical-align:top;">:</td><td><div>set([&#x27;/usr/nc-home/gap2py/web2py/applications/admin/&#x27;, &#x27;/usr/nc-home/gap2py/web2py/applications/gap2py/&#x27;])</div></td></tr><tr><td style="font-weight:bold;vertical-align:top;">applications_parent</td><td style="vertical-align:top;">:</td><td><div>/usr/nc-home/gap2py/web2py</div></td></tr><tr><td style="font-weight:bold;vertical-align:top;">cmd_args</td><td style="vertical-align:top;">:</td><td><div><table></table></div></td></tr><tr><td style="font-weight:bold;vertical-align:top;">cmd_options</td><td style="vertical-align:top;">:</td><td><div>&lt;Values at 0x2921258c: {&#x27;verbose&#x27;: False, &#x27;ip&#x27;: &#x27;192.168.2.114&#x27;, &#x27;debuglevel&#x27;: 30, &#x27;with_scheduler&#x27;: False, &#x27;shutdown_timeout&#x27;: 5, &#x27;taskbar&#x27;: False, &#x27;with_coverage&#x27;: False, &#x27;pid_filename&#x27;: &#x27;httpserver.pid&#x27;, &#x27;maxthreads&#x27;: None, &#x27;softcron&#x27;: False, &#x27;server_name&#x27;: &#x27;MFIA&#x27;, &#x27;bpython&#x27;: False, &#x27;nogui&#x27;: False, &#x27;port&#x27;: 8000, &#x27;print_errors&#x27;: False, &#x27;extcron&#x27;: False, &#x27;runcron&#x27;: False, &#x27;run_system_tests&#x27;: False, &#x27;test&#x27;: None, &#x27;folder&#x27;: &#x27;/usr/nc-home/gap2py/web2py&#x27;, &#x27;config&#x27;: &#x27;&#x27;, &#x27;minthreads&#x27;: None, &#x27;shell&#x27;: None, &#x27;run&#x27;: &#x27;&#x27;, &#x27;log_filename&#x27;: &#x27;httpserver.log&#x27;, &#x27;profiler_dir&#x27;: None, &#x27;args&#x27;: [&#x27;&#x27;], &#x27;socket_timeout&#x27;: 5, &#x27;ssl_ca_certificate&#x27;: None, &#x27;scheduler&#x27;: None, &#x27;interfaces&#x27;: None, &#x27;ssl_private_key&#x27;: &#x27;server.key&#x27;, &#x27;gae&#x27;: None, &#x27;password&#x27;: &#x27;******&#x27;, &#x27;request_queue_size&#x27;: 5, &#x27;ssl_certificate&#x27;: &#x27;server.crt&#x27;, &#x27;cronjob&#x27;: False, &#x27;numthreads&#x27;: None, &#x27;quiet&#x27;: False, &#x27;import_models&#x27;: False, &#x27;timeout&#x27;: 10, &#x27;plain&#x27;: False, &#x27;nobanner&#x27;: False}&gt;</div></td></tr><tr><td style="font-weight:bold;vertical-align:top;">db_sessions</td><td style="vertical-align:top;">:</td><td><div>set([])</div></td></tr><tr><td style="font-weight:bold;vertical-align:top;">debugging</td><td style="vertical-align:top;">:</td><td><div>True</div></td></tr><tr><td style="font-weight:bold;vertical-align:top;">gluon_parent</td><td style="vertical-align:top;">:</td><td><div>/usr/nc-home/gap2py/web2py</div></td></tr><tr><td style="font-weight:bold;vertical-align:top;">is_jython</td><td style="vertical-align:top;">:</td><td><div>False</div></td></tr><tr><td style="font-weight:bold;vertical-align:top;">is_pypy</td><td style="vertical-align:top;">:</td><td><div>False</div></td></tr><tr><td style="font-weight:bold;vertical-align:top;">is_source</td><td style="vertical-align:top;">:</td><td><div>True</div></td></tr><tr><td style="font-weight:bold;vertical-align:top;">local_hosts</td><td style="vertical-align:top;">:</td><td><div><table><tr><td><div>::1</div></td></tr><tr><td><div>MFIA</div></td></tr><tr><td><div>192.168.2.114</div></td></tr><tr><td><div>::ffff:127.0.0.1</div></td></tr><tr><td><div>127.0.0.1</div></td></tr></table></div></td></tr><tr><td style="font-weight:bold;vertical-align:top;">web2py_version</td><td style="vertical-align:top;">:</td><td><div>2.14.6-stable+timestamp.2016.05.10.00.21.47</div></td></tr></table></div></td></tr><tr><td style="font-weight:bold;vertical-align:top;">is_https</td><td style="vertical-align:top;">:</td><td><div>True</div></td></tr><tr><td style="font-weight:bold;vertical-align:top;">is_local</td><td style="vertical-align:top;">:</td><td><div>False</div></td></tr><tr><td style="font-weight:bold;vertical-align:top;">is_restful</td><td style="vertical-align:top;">:</td><td><div>False</div></td></tr><tr><td style="font-weight:bold;vertical-align:top;">is_scheduler</td><td style="vertical-align:top;">:</td><td><div>False</div></td></tr><tr><td style="font-weight:bold;vertical-align:top;">is_shell</td><td style="vertical-align:top;">:</td><td><div>False</div></td></tr><tr><td style="font-weight:bold;vertical-align:top;">now</td><td style="vertical-align:top;">:</td><td><div>datetime.datetime(2016, 8, 13, 16, 49, 4, 274682)</div></td></tr><tr><td style="font-weight:bold;vertical-align:top;">raw_args</td><td style="vertical-align:top;">:</td><td><div></div></td></tr><tr><td style="font-weight:bold;vertical-align:top;">raw_extension</td><td style="vertical-align:top;">:</td><td><div>None</div></td></tr><tr><td style="font-weight:bold;vertical-align:top;">url</td><td style="vertical-align:top;">:</td><td><div>/gap2py/setting/index</div></td></tr><tr><td style="font-weight:bold;vertical-align:top;">utcnow</td><td style="vertical-align:top;">:</td><td><div>datetime.datetime(2016, 8, 13, 16, 49, 4, 274689)</div></td></tr><tr><td style="font-weight:bold;vertical-align:top;">wsgi</td><td style="vertical-align:top;">:</td><td><div>&lt;gluon.main.LazyWSGI object at 0x2a04652c&gt;</div></td></tr></table></div>'
tRp58
sS'frames'
p59
(lp60
(dp61
S'file'
p62
S'/usr/nc-home/gap2py/web2py/gluon/restricted.py'
p63
sS'dump'
p64
(dp65
S'environment'
p66
S"{'A': <class 'gluon.html.A'>, 'ANY_OF': <class 'gluon.validators.ANY_OF'>, 'ASSIGNJS': <function ASSIGNJS>, 'B': <class 'gluon.html.B'>, 'BEAUTIFY': <class 'gluon.html.BEAUTIFY'>, 'BODY': <class 'gluon.html.BODY'>, 'BR': <class 'gluon.html.BR'>, 'BUTTON': <class 'gluon.html.BUTTON'>, 'CAT': <class 'gluon.html.CAT'>, 'CENTER': <class 'gluon.html.CENTER'>, ...}"
p67
sS'ccode'
p68
S'<code object <module> at 0x296c8cc8, file "/usr/...cations/gap2py/views/setting/index.html", line 1>'
p69
ssS'lnum'
p70
I227
sS'lines'
p71
(dp72
I224
S'            ccode = code'
p73
sI225
S'        else:'
p74
sI226
S'            ccode = compile2(code, layer)'
p75
sI227
S'        exec ccode in environment'
p76
sI228
S'    except HTTP:'
p77
sI229
S'        raise'
p78
sI230
S'    except RestrictedError:'
p79
sI231
S'        # do not encapsulate (obfuscate) the original RestrictedError'
p80
sI222
S'    try:'
p81
sI223
S'        if isinstance(code, types.CodeType):'
p82
ssS'call'
p83
S'(code=r"response.write(\'<!DOCTYPE html>\\n<html>\\n\\n\\n<he...ript>\\n\\n\\n</body>\\n\\n\\n</html>\\n\', escape=False)", environment={\'A\': <class \'gluon.html.A\'>, \'ANY_OF\': <class \'gluon.validators.ANY_OF\'>, \'ASSIGNJS\': <function ASSIGNJS>, \'B\': <class \'gluon.html.B\'>, \'BEAUTIFY\': <class \'gluon.html.BEAUTIFY\'>, \'BODY\': <class \'gluon.html.BODY\'>, \'BR\': <class \'gluon.html.BR\'>, \'BUTTON\': <class \'gluon.html.BUTTON\'>, \'CAT\': <class \'gluon.html.CAT\'>, \'CENTER\': <class \'gluon.html.CENTER\'>, ...}, layer=\'/usr/nc-home/gap2py/web2py/applications/gap2py/views/setting/index.html\')'
p84
sS'func'
p85
S'restricted'
p86
sa(dp87
g62
S'/usr/nc-home/gap2py/web2py/applications/gap2py/views/setting/index.html'
p88
sg64
(dp89
S'Sweet'
p90
S'undefined'
p91
sS'Alert'
p92
g91
ssg70
I18
sg71
(dp93
I9
S'response.write(\'" rel="stylesheet">\\n    <!-- Sweet Alert -->\\n    <link href="\', escape=False)'
p94
sI10
S"response.write(URL('static','css/plugins/sweetalert/sweetalert.css'))"
p95
sI11
S'response.write(\'" rel="stylesheet">\\n    <link href="\', escape=False)'
p96
sI12
S"response.write(URL('static','css/animate.css'))"
p97
sI13
S'response.write(\'" rel="stylesheet">\\n    <link href="\', escape=False)'
p98
sI14
S"response.write(URL('static','css/style.css'))"
p99
sI15
S'response.write(\'" rel="stylesheet">\\n\\n</head>\\n<body class="" data-spy="scroll" data-target=".navbar-example">\\n\\n<div id="wrapper">\\n\\n    <nav class="navbar-default navbar-static-side navbar-example" role="navigation">\\n    <div class="sidebar-collapse">\\n            <ul class="nav metismenu">\\n                <li class="nav-header">\\n                    <div class="dropdown profile-element" style="text-align: center"> <span><a href="/gap2py/setting/">\\n                            <img alt="image" class="img-circle" style="height: 45px"\\n                                 src="\', escape=False)'
p100
sI16
S"response.write(URL('static','img/admin.png'))"
p101
sI17
S'response.write(\'"/></a>\\n                             </span>\\n                        <a data-toggle="dropdown" class="dropdown-toggle" href="#">\\n                            <span class="clear"> <span class="block m-t-xs"> <strong class="font-bold">\\xe6\\xac\\xa2\\xe8\\xbf\\x8e\\xe7\\x99\\xbb\\xe9\\x99\\x86</strong>\\n                             </span> <span class="text-muted text-xs block">\', escape=False)'
p102
sI18
S'response.write(username)'
p103
sI19
S'response.write(\' <b\\n                                    class="caret"></b></span> </span> </a>\\n                        <ul class="dropdown-menu animated fadeInRight m-t-xs">\\n                            <li><a href="#"\\n                                   onclick="$(\\\'#oldpass\\\').focus();swal({ title: \\\'\\xe4\\xbf\\xae\\xe6\\x94\\xb9\\xe5\\xaf\\x86\\xe7\\xa0\\x81\\\', text: \\\'\\xe5\\x8f\\xb3\\xe4\\xb8\\x8b\\xe8\\xa7\\x92\\xe8\\xbe\\x93\\xe5\\x85\\xa5\\xe6\\x97\\xa7\\xe5\\xaf\\x86\\xe7\\xa0\\x81\\xe5\\x92\\x8c\\xe6\\x96\\xb0\\xe5\\xaf\\x86\\xe7\\xa0\\x81\\\' });">\\xe4\\xbf\\xae\\xe6\\x94\\xb9\\xe5\\xaf\\x86\\xe7\\xa0\\x81</a>\\n                                <!--<li><a href="mailbox.html">Mailbox</a></li>-->\\n                            <li class="divider"></li>\\n                            <li><a href="/gap2py/login/logout/">\\xe7\\x99\\xbb\\xe5\\x87\\xba</a></li>\\n                        </ul>\\n                    </div>\\n                    <div class="logo-element">\\n                        \\xe4\\xb8\\xad\\xe7\\xbd\\x91\\n                    </div>\\n                </li>\\n\\n            </ul>\\n        </div>\\n    </nav>\\n\\n    <div id="page-wrapper" class="gray-bg">\\n        <div class="row border-bottom" id="top">\\n            <nav class="navbar navbar-static-top  " role="navigation" style="margin-bottom: 0">\\n                <div class="navbar-header">\\n                    <a class="navbar-minimalize minimalize-styl-2 btn btn-primary " href="#"><i\\n                            class="fa fa-bars"></i>\\n                    </a>\\n                </div>\\n                <ul class="nav navbar-top-links navbar-right">\\n                    <li>\\n                        <span class="m-r-sm text-muted welcome-message">\\xe4\\xb8\\xad\\xe7\\xbd\\x91\\xe9\\xa9\\xb0\\xe4\\xba\\x91\\xe9\\x9a\\x94\\xe7\\xa6\\xbb\\xe7\\xbd\\x91\\xe9\\x97\\xb8WEB\\xe7\\xae\\xa1\\xe7\\x90\\x86 </span><code>v6.99</code>\\n                    </li>\\n                    <li class="dropdown">\\n                        <a class="dropdown-toggle count-info" data-toggle="dropdown" href="#">\\n                            <i class="fa fa-bell"></i> <span class="label label-primary" id="nr_tip"></span>\\n                        </a>\\n                        <ul class="dropdown-menu dropdown-alerts">\\n                            <li>\\n                                <div class="text-center link-block">\\n                                    <strong id="nr_info">\\xe6\\xb2\\xa1\\xe6\\x9c\\x89\\xe4\\xbb\\xbb\\xe4\\xbd\\x95\\xe6\\x8f\\x90\\xe9\\x86\\x92</strong>\\n                                </div>\\n                            </li>\\n                        </ul>\\n                    </li>\\n                    <li>\\n                        <a href="/gap2py/login/logout/">\\n                            <i class="fa fa-sign-out"></i> \\xe6\\xb3\\xa8\\xe9\\x94\\x80\\n                        </a>\\n                    </li>\\n                </ul>\\n            </nav>\\n        </div>\\n        <div class="wrapper wrapper-content animated fadeInRight">\\n            <div class="row">\\n                <div class="col-lg-12">\\n                    <div class="ibox float-e-margins">\\n                        <div class="ibox-content">\\n                            <form method="get" class="form-horizontal">\\n                                <div class="form-group"><label class="col-sm-2 control-label">\\xe5\\xbd\\x93\\xe5\\x89\\x8d\\xe6\\xa8\\xa1\\xe5\\xbc\\x8f</label>\\n\\n                                    <div class="col-sm-6"><select class="form-control m-b" name="ct" id="ct"\\n                                                                  disabled="disabled">\\n                                        <option value="0">nat</option>\\n                                        <option value="1">owd</option>\\n                                    </select>\\n                                    </div>\\n                                </div>\\n                                <div class="form-group"><label class="col-sm-2 control-label">\\xe5\\xbd\\x93\\xe5\\x89\\x8d\\xe6\\xad\\xa3\\xe5\\x8f\\x8d\\xe5\\x90\\x91</label>\\n\\n                                    <div class="col-sm-6"><select class="form-control m-b" name="cd" id="cd"\\n                                                                  disabled="disabled">\\n                                        <option value="0">\\xe5\\x8f\\x8c\\xe5\\x90\\x91</option>\\n                                        <option value="1">\\xe6\\xad\\xa3\\xe5\\x90\\x91</option>\\n                                        <option value="2">\\xe5\\x8f\\x8d\\xe5\\x90\\x91</option>\\n                                    </select>\\n                                    </div>\\n                                </div>\\n\\n                                <br>\\n                                <hr>\\n                                <div class="form-group"><label class="col-sm-2 control-label">\\xe9\\x87\\x8d\\xe5\\x90\\xaf\\xe5\\x90\\x8e\\xe6\\xa8\\xa1\\xe5\\xbc\\x8f</label>\\n\\n                                    <div class="col-sm-6"><select class="form-control m-b" name="rt" id="rt"\\n                                                                  disabled="disabled">\\n                                        <option value="0">nat</option>\\n                                        <option value="1">owd</option>\\n                                    </select>\\n                                    </div>\\n                                </div>\\n                                <div class="form-group"><label class="col-sm-2 control-label">\\xe9\\x87\\x8d\\xe5\\x90\\xaf\\xe5\\x90\\x8e\\xe6\\xad\\xa3\\xe5\\x8f\\x8d\\xe5\\x90\\x91</label>\\n\\n                                    <div class="col-sm-6"><select class="form-control m-b" name="rd" id="rd"\\n                                                                  disabled="disabled">\\n                                        <option value="0">\\xe5\\x8f\\x8c\\xe5\\x90\\x91</option>\\n                                        <option value="1">\\xe6\\xad\\xa3\\xe5\\x90\\x91</option>\\n                                        <option value="2">\\xe5\\x8f\\x8d\\xe5\\x90\\x91</option>\\n                                    </select>\\n                                    </div>\\n                                </div>\\n\\n                                <br>\\n                                <hr>\\n\\n                                <div class="form-group"><label class="col-sm-2 control-label">\\xe6\\x9b\\xb4\\xe6\\x94\\xb9\\xe6\\xa8\\xa1\\xe5\\xbc\\x8f</label>\\n\\n                                    <div class="col-sm-6"><select class="form-control m-b" name="nct" id="nct">\\n                                        <option value="-1">\\xe4\\xb8\\x8d\\xe6\\x9b\\xb4\\xe6\\x94\\xb9</option>\\n                                        <option value="0">nat</option>\\n                                        <option value="1">owd</option>\\n                                    </select>\\n                                    </div>\\n                                </div>\\n\\n                                <div class="form-group"><label class="col-sm-2 control-label">\\xe6\\x9b\\xb4\\xe6\\x94\\xb9\\xe6\\xad\\xa3\\xe5\\x8f\\x8d\\xe5\\x90\\x91</label>\\n\\n                                    <div class="col-sm-6"><select class="form-control m-b" name="ncd" id="ncd">\\n                                        <option value="-1">\\xe4\\xb8\\x8d\\xe6\\x9b\\xb4\\xe6\\x94\\xb9</option>\\n                                        <option value="0">\\xe5\\x8f\\x8c\\xe5\\x90\\x91</option>\\n                                        <option value="1">\\xe6\\xad\\xa3\\xe5\\x90\\x91</option>\\n                                        <option value="2">\\xe5\\x8f\\x8d\\xe5\\x90\\x91</option>\\n                                    </select>\\n                                    </div>\\n                                </div>\\n                                <div class="hr-line-dashed"></div>\\n                                <div class="form-group">\\n                                    <div class="col-sm-6  col-sm-offset-6">\\n                                        <a href="javascript:void(0)" id="reload" class="btn btn-warning">\\xe9\\x87\\x8d\\xe5\\x90\\xaf</a>\\n                                        <a href="javascript:void(0)" id="shutdown" class="btn btn-warning">\\xe5\\x85\\xb3\\xe6\\x9c\\xba</a>\\n                                        <a href="javascript:void(0)" id="save" class="btn btn-primary">\\xe5\\xba\\x94\\xe7\\x94\\xa8</a>\\n                                    </div>\\n                                </div>\\n                            </form>\\n                        </div>\\n                    </div>\\n                </div>\\n            </div>\\n        </div>\\n        <div class="footer">\\n            <div>\\n                <strong>\\xe7\\x89\\x88\\xe6\\x9d\\x83\\xe6\\x89\\x80\\xe6\\x9c\\x89</strong> \\xe4\\xb8\\x8a\\xe6\\xb5\\xb7\\xe4\\xb8\\xad\\xe7\\xbd\\x91\\xe7\\xbd\\x91\\xe7\\xbb\\x9c\\xe5\\xae\\x89\\xe5\\x85\\xa8\\xe6\\x8a\\x80\\xe6\\x9c\\xaf\\xe6\\x9c\\x89\\xe9\\x99\\x90\\xe5\\x85\\xac\\xe5\\x8f\\xb8 &copy; 2014-2016\\n            </div>\\n        </div>\\n    </div>\\n</div>\\n\\n\\n<!-- Mainly scripts -->\\n<script src="\', escape=False)'
p104
sI20
S"response.write(URL('static','js/jquery-2.1.1.js'))"
p105
sI21
S'response.write(\'"></script>\\n<script src="\', escape=False)'
p106
sI22
S"response.write(URL('static','js/bootstrap.min.js'))"
p107
sI23
S'response.write(\'"></script>\\n<script src="\', escape=False)'
p108
sI24
S"response.write(URL('static','js/plugins/metisMenu/jquery.metisMenu.js'))"
p109
sI25
S'response.write(\'"></script>\\n<script src="\', escape=False)'
p110
sI26
S"response.write(URL('static','js/plugins/slimscroll/jquery.slimscroll.min.js'))"
p111
sI27
S'response.write(\'"></script>\\n<script src="\', escape=False)'
p112
sI28
S"response.write(URL('static','js/plugins/jasny/jasny-bootstrap.min.js'))"
p113
ssg83
S'()'
p114
sg85
S'<module>'
p115
sasS'pyver'
p116
S'Python 2.7.10: /bin/python (prefix: /usr/nc-home/home/gap)'
p117
sS'session'
p118
g57
(S's\x9d\x00\x00\x00<div><table><tr><td style="font-weight:bold;vertical-align:top;">user</td><td style="vertical-align:top;">:</td><td><div>midnet</div></td></tr></table></div>'
tRp119
sS'etype'
p120
S"<type 'exceptions.NameError'>"
p121
sS'date'
p122
S'Sat Aug 13 16:49:04 2016'
p123
sS'response'
p124
g57
(S'ss\x17\x00\x00<div><table><tr><td style="font-weight:bold;vertical-align:top;">body</td><td style="vertical-align:top;">:</td><td><div>&lt;cStringIO.StringO object at 0x29e96340&gt;</div></td></tr><tr><td style="font-weight:bold;vertical-align:top;">cookies</td><td style="vertical-align:top;">:</td><td><div><table><tr><td style="font-weight:bold;vertical-align:top;">session_id_gap2py</td><td style="vertical-align:top;">:</td><td><div>192.168.2.160-c448d3ca-ec99-4bba-a9ab-8b15614e27e1<table><tr><td style="font-weight:bold;vertical-align:top;">comment</td><td style="vertical-align:top;">:</td><td><div></div></td></tr><tr><td style="font-weight:bold;vertical-align:top;">domain</td><td style="vertical-align:top;">:</td><td><div></div></td></tr><tr><td style="font-weight:bold;vertical-align:top;">expires</td><td style="vertical-align:top;">:</td><td><div></div></td></tr><tr><td style="font-weight:bold;vertical-align:top;">httponly</td><td style="vertical-align:top;">:</td><td><div></div></td></tr><tr><td style="font-weight:bold;vertical-align:top;">max-age</td><td style="vertical-align:top;">:</td><td><div></div></td></tr><tr><td style="font-weight:bold;vertical-align:top;">path</td><td style="vertical-align:top;">:</td><td><div>/</div></td></tr><tr><td style="font-weight:bold;vertical-align:top;">secure</td><td style="vertical-align:top;">:</td><td><div></div></td></tr><tr><td style="font-weight:bold;vertical-align:top;">version</td><td style="vertical-align:top;">:</td><td><div></div></td></tr></table></div></td></tr></table></div></td></tr><tr><td style="font-weight:bold;vertical-align:top;">delimiters</td><td style="vertical-align:top;">:</td><td><div><table><tr><td><div>{{</div></td></tr><tr><td><div>}}</div></td></tr></table></div></td></tr><tr><td style="font-weight:bold;vertical-align:top;">files</td><td style="vertical-align:top;">:</td><td><div><table></table></div></td></tr><tr><td style="font-weight:bold;vertical-align:top;">flash</td><td style="vertical-align:top;">:</td><td><div></div></td></tr><tr><td style="font-weight:bold;vertical-align:top;">form_label_separator</td><td style="vertical-align:top;">:</td><td><div>: </div></td></tr><tr><td style="font-weight:bold;vertical-align:top;">formstyle</td><td style="vertical-align:top;">:</td><td><div>table3cols</div></td></tr><tr><td style="font-weight:bold;vertical-align:top;">generic_patterns</td><td style="vertical-align:top;">:</td><td><div><table><tr><td><div>*</div></td></tr></table></div></td></tr><tr><td style="font-weight:bold;vertical-align:top;">headers</td><td style="vertical-align:top;">:</td><td><div><table><tr><td style="font-weight:bold;vertical-align:top;">X-Powered-By</td><td style="vertical-align:top;">:</td><td><div>web2py</div></td></tr></table></div></td></tr><tr><td style="font-weight:bold;vertical-align:top;">menu</td><td style="vertical-align:top;">:</td><td><div><table></table></div></td></tr><tr><td style="font-weight:bold;vertical-align:top;">meta</td><td style="vertical-align:top;">:</td><td><div><table></table></div></td></tr><tr><td style="font-weight:bold;vertical-align:top;">models_to_run</td><td style="vertical-align:top;">:</td><td><div><table><tr><td><div>^\\w+\\.py$</div></td></tr><tr><td><div>^setting/\\w+\\.py$</div></td></tr><tr><td><div>^setting/index/\\w+\\.py$</div></td></tr></table></div></td></tr><tr><td style="font-weight:bold;vertical-align:top;">postprocessing</td><td style="vertical-align:top;">:</td><td><div><table></table></div></td></tr><tr><td style="font-weight:bold;vertical-align:top;">session_client</td><td style="vertical-align:top;">:</td><td><div>192.168.2.160</div></td></tr><tr><td style="font-weight:bold;vertical-align:top;">session_cookie_compression_level</td><td style="vertical-align:top;">:</td><td><div>None</div></td></tr><tr><td style="font-weight:bold;vertical-align:top;">session_cookie_expires</td><td style="vertical-align:top;">:</td><td><div>None</div></td></tr><tr><td style="font-weight:bold;vertical-align:top;">session_data_name</td><td style="vertical-align:top;">:</td><td><div>session_data_gap2py</div></td></tr><tr><td style="font-weight:bold;vertical-align:top;">session_file</td><td style="vertical-align:top;">:</td><td><div>&lt;open file &#x27;/usr/nc-home/gap2py/web2py/applications/gap2py/sessions/12d/04b/192.168.2.160-c448d3ca-ec99-4bba-a9ab-8b15614e27e1&#x27;, mode &#x27;rb+&#x27; at 0x284bdcd8&gt;</div></td></tr><tr><td style="font-weight:bold;vertical-align:top;">session_filename</td><td style="vertical-align:top;">:</td><td><div>/usr/nc-home/gap2py/web2py/applications/gap2py/sessions/192.168.2.160-c448d3ca-ec99-4bba-a9ab-8b15614e27e1</div></td></tr><tr><td style="font-weight:bold;vertical-align:top;">session_hash</td><td style="vertical-align:top;">:</td><td><div>92e7867fcbd7deb1a1aa5edc170d81b4</div></td></tr><tr><td style="font-weight:bold;vertical-align:top;">session_id</td><td style="vertical-align:top;">:</td><td><div>192.168.2.160-c448d3ca-ec99-4bba-a9ab-8b15614e27e1</div></td></tr><tr><td style="font-weight:bold;vertical-align:top;">session_id_name</td><td style="vertical-align:top;">:</td><td><div>session_id_gap2py</div></td></tr><tr><td style="font-weight:bold;vertical-align:top;">session_locked</td><td style="vertical-align:top;">:</td><td><div>True</div></td></tr><tr><td style="font-weight:bold;vertical-align:top;">session_masterapp</td><td style="vertical-align:top;">:</td><td><div>gap2py</div></td></tr><tr><td style="font-weight:bold;vertical-align:top;">session_new</td><td style="vertical-align:top;">:</td><td><div>False</div></td></tr><tr><td style="font-weight:bold;vertical-align:top;">session_storage_type</td><td style="vertical-align:top;">:</td><td><div>file</div></td></tr><tr><td style="font-weight:bold;vertical-align:top;">status</td><td style="vertical-align:top;">:</td><td><div>200</div></td></tr><tr><td style="font-weight:bold;vertical-align:top;">view</td><td style="vertical-align:top;">:</td><td><div>setting/index.html</div></td></tr></table></div>'
tRp125
sS'locals'
p126
(dp127
S'OBJECT'
p128
S"<class 'gluon.html.OBJECT'>"
p129
sS'SQLDB'
p130
S"<class 'pydal.base.DAL'>"
p131
sg118
S"<Storage {'user': 'midnet', '_secure': True}>"
p132
sS'LINK'
p133
S"<class 'gluon.html.LINK'>"
p134
sS'BR'
p135
S"<class 'gluon.html.BR'>"
p136
sS'local_import'
p137
S'<function <lambda>>'
p138
sS'OPTGROUP'
p139
S"<class 'gluon.html.OPTGROUP'>"
p140
sS'PRE'
p141
S"<class 'gluon.html.PRE'>"
p142
sS'IS_INT_IN_RANGE'
p143
S"<class 'gluon.validators.IS_INT_IN_RANGE'>"
p144
sS'IS_LOWER'
p145
S"<class 'gluon.validators.IS_LOWER'>"
p146
sS'IS_STRONG'
p147
S"<class 'gluon.validators.IS_STRONG'>"
p148
sS'cache'
p149
S'<gluon.cache.Cache object>'
p150
sS'IS_IN_DB'
p151
S"<class 'gluon.validators.IS_IN_DB'>"
p152
sS'TAG'
p153
S'<gluon.html.__TAG__ object>'
p154
sS'SQLField'
p155
S"<class 'pydal.objects.Field'>"
p156
sS'BODY'
p157
S"<class 'gluon.html.BODY'>"
p158
sS'IS_DATE_IN_RANGE'
p159
S"<class 'gluon.validators.IS_DATE_IN_RANGE'>"
p160
sS'TH'
p161
S"<class 'gluon.html.TH'>"
p162
sS'URL'
p163
S'<function URL>'
p164
sS'__file__'
p165
S"'/usr/nc-home/gap2py/web2py/applications/gap2py/views/setting/index.html'"
p166
sS'P'
S"<class 'gluon.html.P'>"
p167
sS'TFOOT'
p168
S"<class 'gluon.html.TFOOT'>"
p169
sS'XHTML'
p170
S"<class 'gluon.html.XHTML'>"
p171
sS'ON'
p172
S'True'
p173
sS'OL'
p174
S"<class 'gluon.html.OL'>"
p175
sS'TEXTAREA'
p176
S"<class 'gluon.html.TEXTAREA'>"
p177
sS'MENU'
p178
S"<class 'gluon.html.MENU'>"
p179
sS'LOAD'
p180
S'<function LOAD>'
p181
sS'CODE'
p182
S"<class 'gluon.html.CODE'>"
p183
sS'HTTP'
p184
S"<class 'gluon.http.HTTP'>"
p185
sS'HR'
p186
S"<class 'gluon.html.HR'>"
p187
sS'IS_DATETIME'
p188
S"<class 'gluon.validators.IS_DATETIME'>"
p189
sS'HEAD'
p190
S"<class 'gluon.html.HEAD'>"
p191
sS'LABEL'
p192
S"<class 'gluon.html.LABEL'>"
p193
sS'CLEANUP'
p194
S"<class 'gluon.validators.CLEANUP'>"
p195
sS'SELECT'
p196
S"<class 'gluon.html.SELECT'>"
p197
sS'CENTER'
p198
S"<class 'gluon.html.CENTER'>"
p199
sS'__builtins__'
p200
S"{'ArithmeticError': <type 'exceptions.ArithmeticError'>, 'AssertionError': <type 'exceptions.AssertionError'>, 'AttributeError': <type 'exceptions.AttributeError'>, 'BaseException': <type 'exceptions.BaseException'>, 'BufferError': <type 'exceptions.BufferError'>, 'BytesWarning': <type 'exceptions.BytesWarning'>, 'DeprecationWarning': <type 'exceptions.DeprecationWarning'>, 'EOFError': <type 'exceptions.EOFError'>, 'Ellipsis': Ellipsis, 'EnvironmentError': <type 'exceptions.EnvironmentError'>, ...}"
p201
sS'HTML'
p202
S"<class 'gluon.html.HTML'>"
p203
sS'SQLFORM'
p204
S"<class 'gluon.sqlhtml.SQLFORM'>"
p205
sS'EM'
p206
S"<class 'gluon.html.EM'>"
p207
sS'redirect'
p208
S'<function redirect>'
p209
sS'FIELDSET'
p210
S"<class 'gluon.html.FIELDSET'>"
p211
sS'IS_EQUAL_TO'
p212
S"<class 'gluon.validators.IS_EQUAL_TO'>"
p213
sS'embed64'
p214
S'<function embed64>'
p215
sS'IS_LIST_OF'
p216
S"<class 'gluon.validators.IS_LIST_OF'>"
p217
sS'__name__'
p218
S"'__restricted__'"
p219
sS'EMBED'
p220
S"<class 'gluon.html.EMBED'>"
p221
sS'FORM'
p222
S"<class 'gluon.html.FORM'>"
p223
sS'H2'
p224
S"<class 'gluon.html.H2'>"
p225
sS'H3'
p226
S"<class 'gluon.html.H3'>"
p227
sS'BUTTON'
p228
S"<class 'gluon.html.BUTTON'>"
p229
sS'H1'
p230
S"<class 'gluon.html.H1'>"
p231
sS'H6'
p232
S"<class 'gluon.html.H6'>"
p233
sS'H4'
p234
S"<class 'gluon.html.H4'>"
p235
sS'H5'
p236
S"<class 'gluon.html.H5'>"
p237
sS'UL'
p238
S"<class 'gluon.html.UL'>"
p239
sS'IS_UPPER'
p240
S"<class 'gluon.validators.IS_UPPER'>"
p241
sS'xmlescape'
p242
S'<function xmlescape>'
p243
sS'IS_TIME'
p244
S"<class 'gluon.validators.IS_TIME'>"
p245
sS'OPTION'
p246
S"<class 'gluon.html.OPTION'>"
p247
sS'TITLE'
p248
S"<class 'gluon.html.TITLE'>"
p249
sS'CRYPT'
p250
S"<class 'gluon.validators.CRYPT'>"
p251
sS'IS_EMPTY_OR'
p252
S"<class 'gluon.validators.IS_EMPTY_OR'>"
p253
sS'MARKMIN'
p254
S"<class 'gluon.html.MARKMIN'>"
p255
sS'INPUT'
p256
S"<class 'gluon.html.INPUT'>"
p257
sS'STRONG'
p258
S"<class 'gluon.html.STRONG'>"
p259
sS'COL'
p260
S"<class 'gluon.html.COL'>"
p261
sS'SCRIPT'
p262
S"<class 'gluon.html.SCRIPT'>"
p263
sS'TABLE'
p264
S"<class 'gluon.html.TABLE'>"
p265
sS'IS_IPV4'
p266
S"<class 'gluon.validators.IS_IPV4'>"
p267
sS'IS_LENGTH'
p268
S"<class 'gluon.validators.IS_LENGTH'>"
p269
sS'IS_IPV6'
p270
S"<class 'gluon.validators.IS_IPV6'>"
p271
sS'XML'
p272
S"<class 'gluon.html.XML'>"
p273
sS'B'
S"<class 'gluon.html.B'>"
p274
sS'IMG'
p275
S"<class 'gluon.html.IMG'>"
p276
sS'SQLTABLE'
p277
S"<class 'gluon.sqlhtml.SQLTABLE'>"
p278
sS'IS_MATCH'
p279
S"<class 'gluon.validators.IS_MATCH'>"
p280
sS'IS_ALPHANUMERIC'
p281
S"<class 'gluon.validators.IS_ALPHANUMERIC'>"
p282
sS'SPAN'
p283
S"<class 'gluon.html.SPAN'>"
p284
sS'IS_JSON'
p285
S"<class 'gluon.validators.IS_JSON'>"
p286
sS'IS_IPADDRESS'
p287
S"<class 'gluon.validators.IS_IPADDRESS'>"
p288
sS'IS_SLUG'
p289
S"<class 'gluon.validators.IS_SLUG'>"
p290
sS'BEAUTIFY'
p291
S"<class 'gluon.html.BEAUTIFY'>"
p292
sS'META'
p293
S"<class 'gluon.html.META'>"
p294
sS'IS_DATE'
p295
S"<class 'gluon.validators.IS_DATE'>"
p296
sS'IS_EMAIL'
p297
S"<class 'gluon.validators.IS_EMAIL'>"
p298
sS'IS_NOT_EMPTY'
p299
S"<class 'gluon.validators.IS_NOT_EMPTY'>"
p300
sS'IS_FLOAT_IN_RANGE'
p301
S"<class 'gluon.validators.IS_FLOAT_IN_RANGE'>"
p302
sS'TBODY'
p303
S"<class 'gluon.html.TBODY'>"
p304
sS'CAT'
p305
S"<class 'gluon.html.CAT'>"
p306
sS'Field'
p307
S"<class 'pydal.objects.Field'>"
p308
sS'IS_LIST_OF_EMAILS'
p309
S"<class 'gluon.validators.IS_LIST_OF_EMAILS'>"
p310
sS'DIV'
p311
S"<class 'gluon.html.DIV'>"
p312
sS'LEGEND'
p313
S"<class 'gluon.html.LEGEND'>"
p314
sS'COLGROUP'
p315
S"<class 'gluon.html.COLGROUP'>"
p316
sS'DAL'
p317
S"<class 'pydal.base.DAL'>"
p318
sS'ASSIGNJS'
p319
S'<function ASSIGNJS>'
p320
sS'TR'
p321
S"<class 'gluon.html.TR'>"
p322
sS'LI'
p323
S"<class 'gluon.html.LI'>"
p324
sS'IFRAME'
p325
S"<class 'gluon.html.IFRAME'>"
p326
sS'TD'
p327
S"<class 'gluon.html.TD'>"
p328
sS'IS_URL'
p329
S"<class 'gluon.validators.IS_URL'>"
p330
sS'A'
S"<class 'gluon.html.A'>"
p331
sS'STYLE'
p332
S"<class 'gluon.html.STYLE'>"
p333
sS'IS_DATETIME_IN_RANGE'
p334
S"<class 'gluon.validators.IS_DATETIME_IN_RANGE'>"
p335
sS'IS_IMAGE'
p336
S"<class 'gluon.validators.IS_IMAGE'>"
p337
sS'I'
S"<class 'gluon.html.I'>"
p338
sS'IS_NOT_IN_DB'
p339
S"<class 'gluon.validators.IS_NOT_IN_DB'>"
p340
sg124
S"<Storage {'body': <cStringIO.StringO object at 0...a> at 0x29e134c4>, 'view': 'setting/index.html'}>"
p341
sS'THEAD'
p342
S"<class 'gluon.html.THEAD'>"
p343
sS'ANY_OF'
p344
S"<class 'gluon.validators.ANY_OF'>"
p345
sS'IS_NULL_OR'
p346
S"<class 'gluon.validators.IS_EMPTY_OR'>"
p347
sg56
S"<Storage {'_vars': None, 'function': 'index', 'c...usr/nc-home/gap2py/web2py/applications/gap2py/'}>"
p348
sS'IS_EXPR'
p349
S"<class 'gluon.validators.IS_EXPR'>"
p350
sS'T'
S'<gluon.languages.translator object>'
p351
sS'IS_IN_SET'
p352
S"<class 'gluon.validators.IS_IN_SET'>"
p353
sS'IS_UPLOAD_FILENAME'
p354
S"<class 'gluon.validators.IS_UPLOAD_FILENAME'>"
p355
sS'TT'
p356
S"<class 'gluon.html.TT'>"
p357
sS'IS_DECIMAL_IN_RANGE'
p358
S"<class 'gluon.validators.IS_DECIMAL_IN_RANGE'>"
p359
sssS'traceback'
p360
S'Traceback (most recent call last):\n  File "/usr/nc-home/gap2py/web2py/gluon/restricted.py", line 227, in restricted\n    exec ccode in environment\n  File "/usr/nc-home/gap2py/web2py/applications/gap2py/views/setting/index.html", line 18, in <module>\n    <!-- Sweet Alert -->\nNameError: name \'username\' is not defined\n'
p361
s.