(dp1
S'output'
p2
S"<type 'exceptions.ImportError'> No module named Crypto.Cipher"
p3
sS'layer'
p4
S'/usr/nc-home/gap2py/web2py/applications/gap2py/controllers/index.py'
p5
sS'code'
p6
S'# -*- coding: utf-8 -*-\n# \xe5\xb0\x9d\xe8\xaf\x95\nimport random\n\nimport gluon.contrib.simplejson as sj\nfrom zcommon import *\n\n\ndef index():\n\n    if not license_passed():\n        return redirect(\'/gap2py/license/index\')\n    user = session.user or \'\'\n    if user:\n        return dict(username=user)\n    else:\n        return redirect(\'/gap2py/login/index\')\n\n\ndef something():\n    d = {}\n    d[\'diskstr\'] = \'\'\'df -h | grep replace | head -n 1 | awk \'{print $5}\' | tr -s " "\'\'\'\n    d[\'cpugetstr\'] = \'\'\'vmstat | sed -n \'3p\' | awk \'{print $17}\' | tr -s " "\'\'\'\n    d[\'memstr\'] = \'\'\'vmstat | sed -n \'3p\' | awk \'{print $5}\' | tr -s " "\'\'\'\n    d[\'uptimestr\'] = \'\'\'uptime | awk \'{print $1" "$2" "$3$4$5}\' | tr -s " "\'\'\'\n    return d\n\n\ndef get_config():\n    user = session.user or \'\'\n    if user:\n        f = open("%s%s" % (dpath(), "db/config.json"), "r");\n        try:\n            s = json.load(f)\n        except Exception as e:\n            print e\n        finally:\n            f.close()\n    else:\n        return redirect(\'/gap2py/login/index\')\n\n    return sj.dumps(s)\n\n\ndef get_status():\n    import commands\n    user = session.get(\'user\', \'\')\n    if user:\n        try:\n            if getplatform():\n                try:\n                    f = open("%s%s" % (dpath(), "db/getstatus.json"), "r")\n                    s = json.load(f)\n                except Exception as e:\n                    print e\n                finally:\n                    f.close()\n            else:\n                ad = getdtype()\n                try:\n\n                    word = something()[\'diskstr\'].replace(\'replace\', \'ad%s\' % ad[\'iad\'])\n                    print word\n                    diskstatus_ia = commands.getoutput(word)[:-1]\n                except Exception as e:\n                    print e\n                    diskstatus_ia = 0\n\n                try:\n                    cmd = something()[\'diskstr\'].replace(\'replace\', \'ad%ss2\' % ad[\'oad\'])\n                    print cmd\n                    diskstatus_oa = verification_ssh(rsetting(), cmd)\n                    diskstatus_oa = (diskstatus_oa.split(\'\\n\'))[1:-1][0]\n                    diskstatus_oa = diskstatus_oa.strip(\'\\r\')[:-1]\n                    if diskstatus_oa > 90:\n                        diskstatus_oa = 30\n                except Exception as e:\n                    print 111\n                    print e\n                    diskstatus_oa = diskstatus_ia\n\n                try:\n                    # memstr_ia = commands.getoutput(something()[\'memstr\'])\n                    # memstr_ia = "%.2f" % (float(memstr_ia) / 2048000)\n                    # memstr_ia = float(memstr_ia) * 100\n                    # memstr_ia = int(memstr_ia)\n                    # memstr_ia = str(memstr_ia)\n                    memstr_ia = str(random.randint(8, 30))\n                except:\n                    memstr_ia = 0\n                try:\n                    # memstr_oa = verification_ssh(rsetting(), something()[\'memstr\'])\n                    # memstr_oa = (memstr_oa.split(\'\\n\'))[1:-1][0]\n                    # memstr_oa = float(memstr_oa.strip(\'\\r\'))\n                    # memstr_oa = "%.2f" % (memstr_oa / 2048000)\n                    # memstr_oa = int(float(memstr_oa) * 100)\n                    # memstr_oa = str(memstr_oa)\n                    memstr_oa = str(random.randint(8, 30))\n                except:\n                    memstr_oa = 0\n\n                try:\n                    # cpu_ia = commands.getoutput(something()[\'cpugetstr\'])\n                    cpu_ia = str(random.randint(8, 30))\n                except:\n                    cpu_ia = 0\n                try:\n                    # cpu_oa = verification_ssh(rsetting(), something()[\'cpugetstr\'])\n                    # cpu_oa = (cpu_oa.split(\'\\n\'))[1:-1][0]\n                    # cpu_oa = cpu_oa.strip(\'\\r\')\n                    cpu_oa = str(random.randint(8, 30))\n                except Exception as e:\n                    print e\n                    cpu_oa = cpu_ia\n\n                try:\n                    uptime_ia = commands.getoutput(something()[\'uptimestr\']).strip(\'\\r\').replace(\',\', \' \')\n                except Exception as e:\n\n                    uptime_ia = 0\n\n                try:\n                    # uptime_oa = verification_ssh(rsetting(), something()[\'uptimestr\'])\n                    # uptime_oa = (uptime_oa.split(\'\\n\'))[1:-1][0]\n                    # uptime_oa = uptime_oa.strip(\'\\r\').replace(\',\', \' \')\n                    uptime_oa = uptime_ia\n                except Exception as e:\n                    print e\n                    uptime_oa = uptime_ia\n\n                s = {"ia": {}, "oa": {}}\n                s[\'ia\'][\'cpu\'] = cpu_ia\n                s[\'ia\'][\'memory\'] = memstr_ia\n                s[\'ia\'][\'disk\'] = diskstatus_ia\n                s[\'ia\'][\'uptime\'] = uptime_ia\n                s[\'oa\'][\'cpu\'] = cpu_oa\n                s[\'oa\'][\'memory\'] = memstr_oa\n                s[\'oa\'][\'disk\'] = diskstatus_oa\n                s[\'oa\'][\'uptime\'] = uptime_oa\n        except Exception as e:\n            print e\n\n    else:\n        return redirect(\'/gap2py/login/index\')\n    return sj.dumps(s)\n\n\n\ndef skin_config():\n    user = session.get(\'user\', \'\')\n    if user:\n        response.view = \'skin-config.html\'\n        return dict()\n    else:\n        return redirect(\'/gap2py/login/index\')\n\n\ndef getlog():\n    s = {}\n    if getplatform():\n        try:\n            f = open("%s%s" % (dpath(), "db/log.json"), "r")\n            s = f.read()\n        except:\n            pass\n        finally:\n            f.close()\n    else:\n        try:\n            import commands\n            l = commands.getoutput("dmesg -a")\n            s = (l.split(\'\\n\'))\n        except Exception as e:\n            print e\n\n    return s\n\n\ndef getoalog():\n    s = {}\n    if getplatform():\n        try:\n            f = open("%s%s" % (dpath(), "db/log.json"), "r")\n            s = f.read()\n        except:\n            pass\n        finally:\n            f.close()\n    else:\n        oacontent = "dmesg -a"\n        try:\n            l = verification_ssh(rsetting(), oacontent)\n            s = (l.split(\'\\n\'))[1:-1]\n\n\n        except Exception as e:\n            print e\n\n    return s\n\n\ndef get_log():\n    user = session.user or \'\'\n    if user:\n        data = {\'ia\': [], \'iacount\': 0, \'oa\': [], \'oacount\': 0}\n        oalog = []\n        ialog = []\n\n        try:\n            ialogs = getlog()\n            iacount = 0\n            oacount = 0\n            for x in ialogs:\n                if len(x) > 5:\n                    x = x.replace(\'\\r\', \'\').replace(\',\', \'\')\n\n                    ialog.append(unicode(x, errors=\'ignore\'))\n                    iacount += 1\n            data[\'ia\'] = ialog\n            data[\'iacount\'] = iacount\n        except Exception as e:\n            print e\n        try:\n            oalogs = getoalog()\n            for x in oalogs:\n                if len(x) > 5:\n                    x = x.replace(\'\\r\', \'\').replace(\',\', \'\')\n\n                    oalog.append(unicode(x, errors=\'ignore\'))\n                    oacount += 1\n            data[\'oa\'] = oalog\n            data[\'oacount\'] = oacount\n        except Exception as e:\n            print e\n\n        try:\n            print data\n            feedback = sj.dumps(data)\n        except Exception as e:\n            print e\n            feedback = data\n        return feedback\n    else:\n        return redirect(\'/gap2py/login/index\')\n\n\ndef save():\n    data = {\'succ\': \'0\'}\n    user = session.get(\'user\', \'\')\n    if user:\n        config = request.vars.config\n        try:\n            f = open("%s%s" % (dpath(), "db/config.json"), \'w\')\n            json_config = json.loads(config)\n            jc = json_config.get(\'changepass\')\n            if jc:\n                changepass(json_config[\'changepass\'])\n                del json_config[\'changepass\']\n\n            data[\'succ\'] = \'1\' if setconfig(json_config) else \'0\'\n        except Exception as e:\n            print e\n\n            data[\'succ\'] = \'0\'\n        finally:\n            f.close()\n        return sj.dumps(data)\n    else:\n        return redirect(\'/gap2py/login/index\')\n\n\ndef changepass(passw):\n    if passw:\n        if passw[\'oldpass\'] and passw[\'newpass1\'] and passw[\'newpass2\']:\n            if passw[\'newpass1\'] == passw[\'newpass2\']:\n                if len(passw[\'newpass1\']) >= 6:\n                    try:\n                        s = getusers()\n                        import hashlib\n                        m2 = hashlib.md5()\n                        m2.update(passw[\'newpass1\'])\n                        mold = hashlib.md5()\n                        mold.update(passw[\'oldpass\'])\n                        if mold.hexdigest() == s[\'password\']:\n                            s[\'password\'] = m2.hexdigest()\n                            setusers(s)\n\n                    except Exception as e:\n                        print e\n\nresponse._vars=response._caller(index)\n'
p7
sS'snapshot'
p8
(dp9
S'exception'
p10
(dp11
S'__hash__'
p12
S"<method-wrapper '__hash__' of exceptions.ImportError object>"
p13
sS'__setattr__'
p14
S"<method-wrapper '__setattr__' of exceptions.ImportError object>"
p15
sS'__reduce_ex__'
p16
S'<built-in method __reduce_ex__ of exceptions.ImportError object>'
p17
sS'__getslice__'
p18
S"<method-wrapper '__getslice__' of exceptions.ImportError object>"
p19
sS'__getitem__'
p20
S"<method-wrapper '__getitem__' of exceptions.ImportError object>"
p21
sS'__setstate__'
p22
S'<built-in method __setstate__ of exceptions.ImportError object>'
p23
sS'args'
p24
S"('No module named Crypto.Cipher',)"
p25
sS'__reduce__'
p26
S'<built-in method __reduce__ of exceptions.ImportError object>'
p27
sS'__str__'
p28
S"<method-wrapper '__str__' of exceptions.ImportError object>"
p29
sS'__format__'
p30
S'<built-in method __format__ of exceptions.ImportError object>'
p31
sS'__getattribute__'
p32
S"<method-wrapper '__getattribute__' of exceptions.ImportError object>"
p33
sS'__class__'
p34
S"<type 'exceptions.ImportError'>"
p35
sS'__unicode__'
p36
S'<built-in method __unicode__ of exceptions.ImportError object>'
p37
sS'__delattr__'
p38
S"<method-wrapper '__delattr__' of exceptions.ImportError object>"
p39
sS'__subclasshook__'
p40
S'<built-in method __subclasshook__ of type object>'
p41
sS'__repr__'
p42
S"<method-wrapper '__repr__' of exceptions.ImportError object>"
p43
sS'__dict__'
p44
S'{}'
p45
sS'__sizeof__'
p46
S'<built-in method __sizeof__ of exceptions.ImportError object>'
p47
sS'__doc__'
p48
S'"Import can\'t find module, or can\'t find name in module."'
p49
sS'__init__'
p50
S"<method-wrapper '__init__' of exceptions.ImportError object>"
p51
sS'__new__'
p52
S'<built-in method __new__ of type object>'
p53
ssS'evalue'
p54
S'No module named Crypto.Cipher'
p55
sS'request'
p56
cgluon.html
XML_unpickle
p57
(S's\x82Q\x00\x00<div><table><tr><td style="font-weight:bold;vertical-align:top;">ajax</td><td style="vertical-align:top;">:</td><td><div>False</div></td></tr><tr><td style="font-weight:bold;vertical-align:top;">application</td><td style="vertical-align:top;">:</td><td><div>gap2py</div></td></tr><tr><td style="font-weight:bold;vertical-align:top;">args</td><td style="vertical-align:top;">:</td><td><div><table></table></div></td></tr><tr><td style="font-weight:bold;vertical-align:top;">cid</td><td style="vertical-align:top;">:</td><td><div>None</div></td></tr><tr><td style="font-weight:bold;vertical-align:top;">client</td><td style="vertical-align:top;">:</td><td><div>192.168.199.224</div></td></tr><tr><td style="font-weight:bold;vertical-align:top;">controller</td><td style="vertical-align:top;">:</td><td><div>index</div></td></tr><tr><td style="font-weight:bold;vertical-align:top;">cookies</td><td style="vertical-align:top;">:</td><td><div><table><tr><td style="font-weight:bold;vertical-align:top;">session_id_welcome</td><td style="vertical-align:top;">:</td><td><div>192.168.199.224-c47a2956-0075-4fb5-86ec-35bde8d16ce1<table><tr><td style="font-weight:bold;vertical-align:top;">comment</td><td style="vertical-align:top;">:</td><td><div></div></td></tr><tr><td style="font-weight:bold;vertical-align:top;">domain</td><td style="vertical-align:top;">:</td><td><div></div></td></tr><tr><td style="font-weight:bold;vertical-align:top;">expires</td><td style="vertical-align:top;">:</td><td><div></div></td></tr><tr><td style="font-weight:bold;vertical-align:top;">httponly</td><td style="vertical-align:top;">:</td><td><div></div></td></tr><tr><td style="font-weight:bold;vertical-align:top;">max-age</td><td style="vertical-align:top;">:</td><td><div></div></td></tr><tr><td style="font-weight:bold;vertical-align:top;">path</td><td style="vertical-align:top;">:</td><td><div></div></td></tr><tr><td style="font-weight:bold;vertical-align:top;">secure</td><td style="vertical-align:top;">:</td><td><div></div></td></tr><tr><td style="font-weight:bold;vertical-align:top;">version</td><td style="vertical-align:top;">:</td><td><div></div></td></tr></table></div></td></tr></table></div></td></tr><tr><td style="font-weight:bold;vertical-align:top;">env</td><td style="vertical-align:top;">:</td><td><div><table><tr><td style="font-weight:bold;vertical-align:top;">HTTPS</td><td style="vertical-align:top;">:</td><td><div>on</div></td></tr><tr><td style="font-weight:bold;vertical-align:top;">HTTP_ACCEPT</td><td style="vertical-align:top;">:</td><td><div>text/html,application/xhtml+xml,application/xml;q=0.9,image/webp,*/*;q=0.8</div></td></tr><tr><td style="font-weight:bold;vertical-align:top;">HTTP_ACCEPT_ENCODING</td><td style="vertical-align:top;">:</td><td><div>gzip, deflate, sdch</div></td></tr><tr><td style="font-weight:bold;vertical-align:top;">HTTP_ACCEPT_LANGUAGE</td><td style="vertical-align:top;">:</td><td><div>zh-CN,zh;q=0.8</div></td></tr><tr><td style="font-weight:bold;vertical-align:top;">HTTP_CONNECTION</td><td style="vertical-align:top;">:</td><td><div>keep-alive</div></td></tr><tr><td style="font-weight:bold;vertical-align:top;">HTTP_COOKIE</td><td style="vertical-align:top;">:</td><td><div>session_id_welcome=192.168.199.224-c47a2956-0075-4fb5-86ec-35bde8d16ce1</div></td></tr><tr><td style="font-weight:bold;vertical-align:top;">HTTP_HOST</td><td style="vertical-align:top;">:</td><td><div>192.168.199.179:8159</div></td></tr><tr><td style="font-weight:bold;vertical-align:top;">HTTP_UPGRADE_INSECURE_REQUESTS</td><td style="vertical-align:top;">:</td><td><div>1</div></td></tr><tr><td style="font-weight:bold;vertical-align:top;">HTTP_USER_AGENT</td><td style="vertical-align:top;">:</td><td><div>Mozilla/5.0 (Windows NT 10.0; WOW64) AppleWebKit/537.36 (KHTML, like Gecko) Chrome/44.0.2403.107 Safari/537.36</div></td></tr><tr><td style="font-weight:bold;vertical-align:top;">PATH_INFO</td><td style="vertical-align:top;">:</td><td><div>/gap2py/index/index</div></td></tr><tr><td style="font-weight:bold;vertical-align:top;">QUERY_STRING</td><td style="vertical-align:top;">:</td><td><div></div></td></tr><tr><td style="font-weight:bold;vertical-align:top;">REMOTE_ADDR</td><td style="vertical-align:top;">:</td><td><div>192.168.199.224</div></td></tr><tr><td style="font-weight:bold;vertical-align:top;">REMOTE_PORT</td><td style="vertical-align:top;">:</td><td><div>57654</div></td></tr><tr><td style="font-weight:bold;vertical-align:top;">REQUEST_METHOD</td><td style="vertical-align:top;">:</td><td><div>GET</div></td></tr><tr><td style="font-weight:bold;vertical-align:top;">SCRIPT_NAME</td><td style="vertical-align:top;">:</td><td><div></div></td></tr><tr><td style="font-weight:bold;vertical-align:top;">SERVER_NAME</td><td style="vertical-align:top;">:</td><td><div>MNIA</div></td></tr><tr><td style="font-weight:bold;vertical-align:top;">SERVER_PORT</td><td style="vertical-align:top;">:</td><td><div>8159</div></td></tr><tr><td style="font-weight:bold;vertical-align:top;">SERVER_PROTOCOL</td><td style="vertical-align:top;">:</td><td><div>HTTP/1.1</div></td></tr><tr><td style="font-weight:bold;vertical-align:top;">SERVER_SOFTWARE</td><td style="vertical-align:top;">:</td><td><div>Rocket 1.2.6</div></td></tr><tr><td style="font-weight:bold;vertical-align:top;">SSL_CLIENT_RAW_CERT</td><td style="vertical-align:top;">:</td><td><div>None</div></td></tr><tr><td style="font-weight:bold;vertical-align:top;">app_folders</td><td style="vertical-align:top;">:</td><td><div>set([&#x27;/usr/nc-home/gap2py/web2py/applications/welcome/&#x27;, &#x27;/usr/nc-home/gap2py/web2py/applications/gap2py/&#x27;])</div></td></tr><tr><td style="font-weight:bold;vertical-align:top;">applications_parent</td><td style="vertical-align:top;">:</td><td><div>/usr/nc-home/gap2py/web2py</div></td></tr><tr><td style="font-weight:bold;vertical-align:top;">cmd_args</td><td style="vertical-align:top;">:</td><td><div><table></table></div></td></tr><tr><td style="font-weight:bold;vertical-align:top;">cmd_options</td><td style="vertical-align:top;">:</td><td><div>&lt;Values at 0x8077eb6c8: {&#x27;verbose&#x27;: False, &#x27;ip&#x27;: &#x27;0.0.0.0&#x27;, &#x27;debuglevel&#x27;: 30, &#x27;with_scheduler&#x27;: False, &#x27;shutdown_timeout&#x27;: 5, &#x27;taskbar&#x27;: False, &#x27;with_coverage&#x27;: False, &#x27;pid_filename&#x27;: &#x27;httpserver.pid&#x27;, &#x27;maxthreads&#x27;: None, &#x27;softcron&#x27;: False, &#x27;server_name&#x27;: &#x27;MNIA&#x27;, &#x27;bpython&#x27;: False, &#x27;nogui&#x27;: False, &#x27;port&#x27;: 8159, &#x27;print_errors&#x27;: False, &#x27;extcron&#x27;: False, &#x27;runcron&#x27;: False, &#x27;run_system_tests&#x27;: False, &#x27;test&#x27;: None, &#x27;folder&#x27;: &#x27;/usr/nc-home/gap2py/web2py&#x27;, &#x27;config&#x27;: &#x27;&#x27;, &#x27;minthreads&#x27;: None, &#x27;shell&#x27;: None, &#x27;run&#x27;: &#x27;&#x27;, &#x27;log_filename&#x27;: &#x27;httpserver.log&#x27;, &#x27;profiler_dir&#x27;: None, &#x27;args&#x27;: [&#x27;&#x27;], &#x27;socket_timeout&#x27;: 5, &#x27;ssl_ca_certificate&#x27;: None, &#x27;scheduler&#x27;: None, &#x27;interfaces&#x27;: None, &#x27;ssl_private_key&#x27;: &#x27;server.key&#x27;, &#x27;gae&#x27;: None, &#x27;password&#x27;: &#x27;******&#x27;, &#x27;request_queue_size&#x27;: 5, &#x27;ssl_certificate&#x27;: &#x27;server.crt&#x27;, &#x27;cronjob&#x27;: False, &#x27;numthreads&#x27;: None, &#x27;quiet&#x27;: False, &#x27;import_models&#x27;: False, &#x27;timeout&#x27;: 10, &#x27;plain&#x27;: False, &#x27;nobanner&#x27;: False}&gt;</div></td></tr><tr><td style="font-weight:bold;vertical-align:top;">db_sessions</td><td style="vertical-align:top;">:</td><td><div>set([])</div></td></tr><tr><td style="font-weight:bold;vertical-align:top;">debugging</td><td style="vertical-align:top;">:</td><td><div>False</div></td></tr><tr><td style="font-weight:bold;vertical-align:top;">gluon_parent</td><td style="vertical-align:top;">:</td><td><div>/usr/nc-home/gap2py/web2py</div></td></tr><tr><td style="font-weight:bold;vertical-align:top;">http_accept</td><td style="vertical-align:top;">:</td><td><div>text/html,application/xhtml+xml,application/xml;q=0.9,image/webp,*/*;q=0.8</div></td></tr><tr><td style="font-weight:bold;vertical-align:top;">http_accept_encoding</td><td style="vertical-align:top;">:</td><td><div>gzip, deflate, sdch</div></td></tr><tr><td style="font-weight:bold;vertical-align:top;">http_accept_language</td><td style="vertical-align:top;">:</td><td><div>zh-CN,zh;q=0.8</div></td></tr><tr><td style="font-weight:bold;vertical-align:top;">http_connection</td><td style="vertical-align:top;">:</td><td><div>keep-alive</div></td></tr><tr><td style="font-weight:bold;vertical-align:top;">http_cookie</td><td style="vertical-align:top;">:</td><td><div>session_id_welcome=192.168.199.224-c47a2956-0075-4fb5-86ec-35bde8d16ce1</div></td></tr><tr><td style="font-weight:bold;vertical-align:top;">http_host</td><td style="vertical-align:top;">:</td><td><div>192.168.199.179:8159</div></td></tr><tr><td style="font-weight:bold;vertical-align:top;">http_upgrade_insecure_requests</td><td style="vertical-align:top;">:</td><td><div>1</div></td></tr><tr><td style="font-weight:bold;vertical-align:top;">http_user_agent</td><td style="vertical-align:top;">:</td><td><div>Mozilla/5.0 (Windows NT 10.0; WOW64) AppleWebKit/537.36 (KHTML, like Gecko) Chrome/44.0.2403.107 Safari/537.36</div></td></tr><tr><td style="font-weight:bold;vertical-align:top;">https</td><td style="vertical-align:top;">:</td><td><div>on</div></td></tr><tr><td style="font-weight:bold;vertical-align:top;">is_jython</td><td style="vertical-align:top;">:</td><td><div>False</div></td></tr><tr><td style="font-weight:bold;vertical-align:top;">is_pypy</td><td style="vertical-align:top;">:</td><td><div>False</div></td></tr><tr><td style="font-weight:bold;vertical-align:top;">is_source</td><td style="vertical-align:top;">:</td><td><div>True</div></td></tr><tr><td style="font-weight:bold;vertical-align:top;">local_hosts</td><td style="vertical-align:top;">:</td><td><div><table><tr><td><div>192.168.199.179</div></td></tr><tr><td><div>::ffff:127.0.0.1</div></td></tr><tr><td><div>::1</div></td></tr><tr><td><div>MNIA</div></td></tr><tr><td><div>MNIA.lan</div></td></tr><tr><td><div>127.0.0.1</div></td></tr></table></div></td></tr><tr><td style="font-weight:bold;vertical-align:top;">path_info</td><td style="vertical-align:top;">:</td><td><div>/gap2py/index/index</div></td></tr><tr><td style="font-weight:bold;vertical-align:top;">query_string</td><td style="vertical-align:top;">:</td><td><div></div></td></tr><tr><td style="font-weight:bold;vertical-align:top;">remote_addr</td><td style="vertical-align:top;">:</td><td><div>192.168.199.224</div></td></tr><tr><td style="font-weight:bold;vertical-align:top;">remote_port</td><td style="vertical-align:top;">:</td><td><div>57654</div></td></tr><tr><td style="font-weight:bold;vertical-align:top;">request_method</td><td style="vertical-align:top;">:</td><td><div>GET</div></td></tr><tr><td style="font-weight:bold;vertical-align:top;">request_uri</td><td style="vertical-align:top;">:</td><td><div>/gap2py/index/index</div></td></tr><tr><td style="font-weight:bold;vertical-align:top;">script_name</td><td style="vertical-align:top;">:</td><td><div></div></td></tr><tr><td style="font-weight:bold;vertical-align:top;">server_name</td><td style="vertical-align:top;">:</td><td><div>MNIA</div></td></tr><tr><td style="font-weight:bold;vertical-align:top;">server_port</td><td style="vertical-align:top;">:</td><td><div>8159</div></td></tr><tr><td style="font-weight:bold;vertical-align:top;">server_protocol</td><td style="vertical-align:top;">:</td><td><div>HTTP/1.1</div></td></tr><tr><td style="font-weight:bold;vertical-align:top;">server_software</td><td style="vertical-align:top;">:</td><td><div>Rocket 1.2.6</div></td></tr><tr><td style="font-weight:bold;vertical-align:top;">ssl_client_raw_cert</td><td style="vertical-align:top;">:</td><td><div>None</div></td></tr><tr><td style="font-weight:bold;vertical-align:top;">web2py_path</td><td style="vertical-align:top;">:</td><td><div>/usr/nc-home/gap2py/web2py</div></td></tr><tr><td style="font-weight:bold;vertical-align:top;">web2py_version</td><td style="vertical-align:top;">:</td><td><div>2.14.6-stable+timestamp.2016.05.10.00.21.47</div></td></tr><tr><td style="font-weight:bold;vertical-align:top;">wsgi.errors</td><td style="vertical-align:top;">:</td><td><div>&lt;open file &#x27;&lt;stderr&gt;&#x27;, mode &#x27;w&#x27; at 0x80066f1e0&gt;</div></td></tr><tr><td style="font-weight:bold;vertical-align:top;">wsgi.file_wrapper</td><td style="vertical-align:top;">:</td><td><div>&lt;class wsgiref.util.FileWrapper at 0x807771460&gt;</div></td></tr><tr><td style="font-weight:bold;vertical-align:top;">wsgi.input</td><td style="vertical-align:top;">:</td><td><div>&lt;socket._fileobject object at 0x808070750&gt;</div></td></tr><tr><td style="font-weight:bold;vertical-align:top;">wsgi.multiprocess</td><td style="vertical-align:top;">:</td><td><div>False</div></td></tr><tr><td style="font-weight:bold;vertical-align:top;">wsgi.multithread</td><td style="vertical-align:top;">:</td><td><div>True</div></td></tr><tr><td style="font-weight:bold;vertical-align:top;">wsgi.run_once</td><td style="vertical-align:top;">:</td><td><div>False</div></td></tr><tr><td style="font-weight:bold;vertical-align:top;">wsgi.url_scheme</td><td style="vertical-align:top;">:</td><td><div>https</div></td></tr><tr><td style="font-weight:bold;vertical-align:top;">wsgi.version</td><td style="vertical-align:top;">:</td><td><div><table><tr><td><div>1</div></td></tr><tr><td><div>0</div></td></tr></table></div></td></tr><tr><td style="font-weight:bold;vertical-align:top;">wsgi_errors</td><td style="vertical-align:top;">:</td><td><div>&lt;open file &#x27;&lt;stderr&gt;&#x27;, mode &#x27;w&#x27; at 0x80066f1e0&gt;</div></td></tr><tr><td style="font-weight:bold;vertical-align:top;">wsgi_file_wrapper</td><td style="vertical-align:top;">:</td><td><div>&lt;class wsgiref.util.FileWrapper at 0x807771460&gt;</div></td></tr><tr><td style="font-weight:bold;vertical-align:top;">wsgi_input</td><td style="vertical-align:top;">:</td><td><div>&lt;socket._fileobject object at 0x808070750&gt;</div></td></tr><tr><td style="font-weight:bold;vertical-align:top;">wsgi_multiprocess</td><td style="vertical-align:top;">:</td><td><div>False</div></td></tr><tr><td style="font-weight:bold;vertical-align:top;">wsgi_multithread</td><td style="vertical-align:top;">:</td><td><div>True</div></td></tr><tr><td style="font-weight:bold;vertical-align:top;">wsgi_run_once</td><td style="vertical-align:top;">:</td><td><div>False</div></td></tr><tr><td style="font-weight:bold;vertical-align:top;">wsgi_url_scheme</td><td style="vertical-align:top;">:</td><td><div>https</div></td></tr><tr><td style="font-weight:bold;vertical-align:top;">wsgi_version</td><td style="vertical-align:top;">:</td><td><div><table><tr><td><div>1</div></td></tr><tr><td><div>0</div></td></tr></table></div></td></tr></table></div></td></tr><tr><td style="font-weight:bold;vertical-align:top;">extension</td><td style="vertical-align:top;">:</td><td><div>html</div></td></tr><tr><td style="font-weight:bold;vertical-align:top;">folder</td><td style="vertical-align:top;">:</td><td><div>/usr/nc-home/gap2py/web2py/applications/gap2py/</div></td></tr><tr><td style="font-weight:bold;vertical-align:top;">function</td><td style="vertical-align:top;">:</td><td><div>index</div></td></tr><tr><td style="font-weight:bold;vertical-align:top;">global_settings</td><td style="vertical-align:top;">:</td><td><div><table><tr><td style="font-weight:bold;vertical-align:top;">app_folders</td><td style="vertical-align:top;">:</td><td><div>set([&#x27;/usr/nc-home/gap2py/web2py/applications/welcome/&#x27;, &#x27;/usr/nc-home/gap2py/web2py/applications/gap2py/&#x27;])</div></td></tr><tr><td style="font-weight:bold;vertical-align:top;">applications_parent</td><td style="vertical-align:top;">:</td><td><div>/usr/nc-home/gap2py/web2py</div></td></tr><tr><td style="font-weight:bold;vertical-align:top;">cmd_args</td><td style="vertical-align:top;">:</td><td><div><table></table></div></td></tr><tr><td style="font-weight:bold;vertical-align:top;">cmd_options</td><td style="vertical-align:top;">:</td><td><div>&lt;Values at 0x8077eb6c8: {&#x27;verbose&#x27;: False, &#x27;ip&#x27;: &#x27;0.0.0.0&#x27;, &#x27;debuglevel&#x27;: 30, &#x27;with_scheduler&#x27;: False, &#x27;shutdown_timeout&#x27;: 5, &#x27;taskbar&#x27;: False, &#x27;with_coverage&#x27;: False, &#x27;pid_filename&#x27;: &#x27;httpserver.pid&#x27;, &#x27;maxthreads&#x27;: None, &#x27;softcron&#x27;: False, &#x27;server_name&#x27;: &#x27;MNIA&#x27;, &#x27;bpython&#x27;: False, &#x27;nogui&#x27;: False, &#x27;port&#x27;: 8159, &#x27;print_errors&#x27;: False, &#x27;extcron&#x27;: False, &#x27;runcron&#x27;: False, &#x27;run_system_tests&#x27;: False, &#x27;test&#x27;: None, &#x27;folder&#x27;: &#x27;/usr/nc-home/gap2py/web2py&#x27;, &#x27;config&#x27;: &#x27;&#x27;, &#x27;minthreads&#x27;: None, &#x27;shell&#x27;: None, &#x27;run&#x27;: &#x27;&#x27;, &#x27;log_filename&#x27;: &#x27;httpserver.log&#x27;, &#x27;profiler_dir&#x27;: None, &#x27;args&#x27;: [&#x27;&#x27;], &#x27;socket_timeout&#x27;: 5, &#x27;ssl_ca_certificate&#x27;: None, &#x27;scheduler&#x27;: None, &#x27;interfaces&#x27;: None, &#x27;ssl_private_key&#x27;: &#x27;server.key&#x27;, &#x27;gae&#x27;: None, &#x27;password&#x27;: &#x27;******&#x27;, &#x27;request_queue_size&#x27;: 5, &#x27;ssl_certificate&#x27;: &#x27;server.crt&#x27;, &#x27;cronjob&#x27;: False, &#x27;numthreads&#x27;: None, &#x27;quiet&#x27;: False, &#x27;import_models&#x27;: False, &#x27;timeout&#x27;: 10, &#x27;plain&#x27;: False, &#x27;nobanner&#x27;: False}&gt;</div></td></tr><tr><td style="font-weight:bold;vertical-align:top;">db_sessions</td><td style="vertical-align:top;">:</td><td><div>set([])</div></td></tr><tr><td style="font-weight:bold;vertical-align:top;">debugging</td><td style="vertical-align:top;">:</td><td><div>False</div></td></tr><tr><td style="font-weight:bold;vertical-align:top;">gluon_parent</td><td style="vertical-align:top;">:</td><td><div>/usr/nc-home/gap2py/web2py</div></td></tr><tr><td style="font-weight:bold;vertical-align:top;">is_jython</td><td style="vertical-align:top;">:</td><td><div>False</div></td></tr><tr><td style="font-weight:bold;vertical-align:top;">is_pypy</td><td style="vertical-align:top;">:</td><td><div>False</div></td></tr><tr><td style="font-weight:bold;vertical-align:top;">is_source</td><td style="vertical-align:top;">:</td><td><div>True</div></td></tr><tr><td style="font-weight:bold;vertical-align:top;">local_hosts</td><td style="vertical-align:top;">:</td><td><div><table><tr><td><div>192.168.199.179</div></td></tr><tr><td><div>::ffff:127.0.0.1</div></td></tr><tr><td><div>::1</div></td></tr><tr><td><div>MNIA</div></td></tr><tr><td><div>MNIA.lan</div></td></tr><tr><td><div>127.0.0.1</div></td></tr></table></div></td></tr><tr><td style="font-weight:bold;vertical-align:top;">web2py_version</td><td style="vertical-align:top;">:</td><td><div>2.14.6-stable+timestamp.2016.05.10.00.21.47</div></td></tr></table></div></td></tr><tr><td style="font-weight:bold;vertical-align:top;">is_https</td><td style="vertical-align:top;">:</td><td><div>True</div></td></tr><tr><td style="font-weight:bold;vertical-align:top;">is_local</td><td style="vertical-align:top;">:</td><td><div>False</div></td></tr><tr><td style="font-weight:bold;vertical-align:top;">is_restful</td><td style="vertical-align:top;">:</td><td><div>False</div></td></tr><tr><td style="font-weight:bold;vertical-align:top;">is_scheduler</td><td style="vertical-align:top;">:</td><td><div>False</div></td></tr><tr><td style="font-weight:bold;vertical-align:top;">is_shell</td><td style="vertical-align:top;">:</td><td><div>False</div></td></tr><tr><td style="font-weight:bold;vertical-align:top;">now</td><td style="vertical-align:top;">:</td><td><div>datetime.datetime(2014, 1, 24, 20, 6, 22, 810177)</div></td></tr><tr><td style="font-weight:bold;vertical-align:top;">raw_args</td><td style="vertical-align:top;">:</td><td><div></div></td></tr><tr><td style="font-weight:bold;vertical-align:top;">raw_extension</td><td style="vertical-align:top;">:</td><td><div>None</div></td></tr><tr><td style="font-weight:bold;vertical-align:top;">url</td><td style="vertical-align:top;">:</td><td><div>/gap2py/index/index</div></td></tr><tr><td style="font-weight:bold;vertical-align:top;">utcnow</td><td style="vertical-align:top;">:</td><td><div>datetime.datetime(2014, 1, 24, 12, 6, 22, 810181)</div></td></tr><tr><td style="font-weight:bold;vertical-align:top;">wsgi</td><td style="vertical-align:top;">:</td><td><div>&lt;gluon.main.LazyWSGI object at 0x808143450&gt;</div></td></tr></table></div>'
tRp58
sS'frames'
p59
(lp60
(dp61
S'file'
p62
S'/usr/nc-home/gap2py/web2py/gluon/restricted.py'
p63
sS'dump'
p64
(dp65
S'environment'
p66
S"{'A': <class 'gluon.html.A'>, 'ANY_OF': <class 'gluon.validators.ANY_OF'>, 'ASSIGNJS': <function ASSIGNJS>, 'B': <class 'gluon.html.B'>, 'BEAUTIFY': <class 'gluon.html.BEAUTIFY'>, 'BODY': <class 'gluon.html.BODY'>, 'BR': <class 'gluon.html.BR'>, 'BUTTON': <class 'gluon.html.BUTTON'>, 'CAT': <class 'gluon.html.CAT'>, 'CENTER': <class 'gluon.html.CENTER'>, ...}"
p67
sS'ccode'
p68
S'<code object <module> at 0x8081ce2b0, file "/usr...pplications/gap2py/controllers/index.py", line 3>'
p69
ssS'lnum'
p70
I227
sS'lines'
p71
(dp72
I224
S'            ccode = code'
p73
sI225
S'        else:'
p74
sI226
S'            ccode = compile2(code, layer)'
p75
sI227
S'        exec ccode in environment'
p76
sI228
S'    except HTTP:'
p77
sI229
S'        raise'
p78
sI230
S'    except RestrictedError:'
p79
sI231
S'        # do not encapsulate (obfuscate) the original RestrictedError'
p80
sI222
S'    try:'
p81
sI223
S'        if isinstance(code, types.CodeType):'
p82
ssS'call'
p83
S"(code='# -*- coding: utf-8 -*-\\n# \\xe5\\xb0\\x9d\\xe8\\xaf\\x95\\nimport random\\n\\n... print e\\n\\nresponse._vars=response._caller(index)\\n', environment={'A': <class 'gluon.html.A'>, 'ANY_OF': <class 'gluon.validators.ANY_OF'>, 'ASSIGNJS': <function ASSIGNJS>, 'B': <class 'gluon.html.B'>, 'BEAUTIFY': <class 'gluon.html.BEAUTIFY'>, 'BODY': <class 'gluon.html.BODY'>, 'BR': <class 'gluon.html.BR'>, 'BUTTON': <class 'gluon.html.BUTTON'>, 'CAT': <class 'gluon.html.CAT'>, 'CENTER': <class 'gluon.html.CENTER'>, ...}, layer='/usr/nc-home/gap2py/web2py/applications/gap2py/controllers/index.py')"
p84
sS'func'
p85
S'restricted'
p86
sa(dp87
g62
S'/usr/nc-home/gap2py/web2py/applications/gap2py/controllers/index.py'
p88
sg64
(dp89
S'zcommon'
p90
S'undefined'
p91
ssg70
I6
sg71
(dp92
I2
S'# \xe5\xb0\x9d\xe8\xaf\x95'
p93
sI3
S'import random'
p94
sI4
S''
sI5
S'import gluon.contrib.simplejson as sj'
p95
sI6
S'from zcommon import *'
p96
sI7
S''
sI8
S''
sI9
S'def index():'
p97
sI10
S''
sI11
S'    if not license_passed():'
p98
ssg83
S'()'
p99
sg85
S'<module>'
p100
sa(dp101
g62
S'/usr/nc-home/gap2py/web2py/gluon/custom_import.py'
p102
sg64
(dp103
S'fromlist'
p104
S"('*',)"
p105
sS'level'
p106
S'-1'
p107
sS'base_importer'
p108
S'<built-in function __import__>'
p109
sS'globals'
p110
S"{'A': <class 'gluon.html.A'>, 'ANY_OF': <class 'gluon.validators.ANY_OF'>, 'ASSIGNJS': <function ASSIGNJS>, 'B': <class 'gluon.html.B'>, 'BEAUTIFY': <class 'gluon.html.BEAUTIFY'>, 'BODY': <class 'gluon.html.BODY'>, 'BR': <class 'gluon.html.BR'>, 'BUTTON': <class 'gluon.html.BUTTON'>, 'CAT': <class 'gluon.html.CAT'>, 'CENTER': <class 'gluon.html.CENTER'>, ...}"
p111
sS'pname'
p112
S"'applications.gap2py.modules.zcommon'"
p113
sS'locals'
p114
S"{'A': <class 'gluon.html.A'>, 'ANY_OF': <class 'gluon.validators.ANY_OF'>, 'ASSIGNJS': <function ASSIGNJS>, 'B': <class 'gluon.html.B'>, 'BEAUTIFY': <class 'gluon.html.BEAUTIFY'>, 'BODY': <class 'gluon.html.BODY'>, 'BR': <class 'gluon.html.BR'>, 'BUTTON': <class 'gluon.html.BUTTON'>, 'CAT': <class 'gluon.html.CAT'>, 'CENTER': <class 'gluon.html.CENTER'>, ...}"
p115
ssg70
I95
sg71
(dp116
I96
S'        except ImportError, e1:'
p117
sI97
S'            import_tb = sys.exc_info()[2]'
p118
sI98
S'            try:'
p119
sI99
S'                return NATIVE_IMPORTER(name, globals, locals, fromlist, level)'
p120
sI90
S'                        modules_prefix += "." + itemname'
p121
sI91
S'                    return result'
p122
sI92
S'                else:'
p123
sI93
S'                    # import like "from x import a, b, ..."'
p124
sI94
S'                    pname = modules_prefix + "." + name'
p125
sI95
S'                    return base_importer(pname, globals, locals, fromlist, level)'
p126
ssg83
S"(name='zcommon', globals={'A': <class 'gluon.html.A'>, 'ANY_OF': <class 'gluon.validators.ANY_OF'>, 'ASSIGNJS': <function ASSIGNJS>, 'B': <class 'gluon.html.B'>, 'BEAUTIFY': <class 'gluon.html.BEAUTIFY'>, 'BODY': <class 'gluon.html.BODY'>, 'BR': <class 'gluon.html.BR'>, 'BUTTON': <class 'gluon.html.BUTTON'>, 'CAT': <class 'gluon.html.CAT'>, 'CENTER': <class 'gluon.html.CENTER'>, ...}, locals={'A': <class 'gluon.html.A'>, 'ANY_OF': <class 'gluon.validators.ANY_OF'>, 'ASSIGNJS': <function ASSIGNJS>, 'B': <class 'gluon.html.B'>, 'BEAUTIFY': <class 'gluon.html.BEAUTIFY'>, 'BODY': <class 'gluon.html.BODY'>, 'BR': <class 'gluon.html.BR'>, 'BUTTON': <class 'gluon.html.BUTTON'>, 'CAT': <class 'gluon.html.CAT'>, 'CENTER': <class 'gluon.html.CENTER'>, ...}, fromlist=('*',), level=-1)"
p127
sg85
S'custom_importer'
p128
sa(dp129
g62
S'/usr/nc-home/gap2py/web2py/applications/gap2py/modules/zcommon.py'
p130
sg64
(dp131
S'MNLicense'
p132
g91
sS'mnLicense'
p133
g91
ssg70
I4
sg71
(dp134
I2
S'import time,os'
p135
sI3
S'import threading,thread'
p136
sI4
S'from mnLicense import MNLicense'
p137
sI5
S''
sI6
S'def getplatform():'
p138
sI7
S"    return platform.system() == 'Darwin'"
p139
sI8
S'def dpath():'
p140
sI9
S''
sI10
S'    tp = "/usr/nc-home/gap2py/web2py/applications/gap2py/static/"'
p141
sI11
S'    if getplatform():'
p142
ssg83
S'()'
p143
sg85
g100
sa(dp144
g62
S'/usr/nc-home/gap2py/web2py/gluon/custom_import.py'
p145
sg64
(dp146
S'fromlist'
p147
S"('MNLicense',)"
p148
sS'level'
p149
S'-1'
p150
sS'base_importer'
p151
S'<built-in function __import__>'
p152
sS'globals'
p153
S"{'__builtins__': {'ArithmeticError': <type 'exceptions.ArithmeticError'>, 'AssertionError': <type 'exceptions.AssertionError'>, 'AttributeError': <type 'exceptions.AttributeError'>, 'BaseException': <type 'exceptions.BaseException'>, 'BufferError': <type 'exceptions.BufferError'>, 'BytesWarning': <type 'exceptions.BytesWarning'>, 'DeprecationWarning': <type 'exceptions.DeprecationWarning'>, 'EOFError': <type 'exceptions.EOFError'>, 'Ellipsis': Ellipsis, 'EnvironmentError': <type 'exceptions.EnvironmentError'>, ...}, '__doc__': None, '__file__': None, '__name__': None, '__package__': None, 'json': None, 'os': None, 'platform': None, 'thread': None, 'threading': None, ...}"
p154
sS'pname'
p155
S"'applications.gap2py.modules.mnLicense'"
p156
sS'locals'
p157
S"{'__builtins__': {'ArithmeticError': <type 'exceptions.ArithmeticError'>, 'AssertionError': <type 'exceptions.AssertionError'>, 'AttributeError': <type 'exceptions.AttributeError'>, 'BaseException': <type 'exceptions.BaseException'>, 'BufferError': <type 'exceptions.BufferError'>, 'BytesWarning': <type 'exceptions.BytesWarning'>, 'DeprecationWarning': <type 'exceptions.DeprecationWarning'>, 'EOFError': <type 'exceptions.EOFError'>, 'Ellipsis': Ellipsis, 'EnvironmentError': <type 'exceptions.EnvironmentError'>, ...}, '__doc__': None, '__file__': None, '__name__': None, '__package__': None, 'json': None, 'os': None, 'platform': None, 'thread': None, 'threading': None, ...}"
p158
ssg70
I95
sg71
(dp159
I96
S'        except ImportError, e1:'
p160
sI97
S'            import_tb = sys.exc_info()[2]'
p161
sI98
S'            try:'
p162
sI99
S'                return NATIVE_IMPORTER(name, globals, locals, fromlist, level)'
p163
sI90
S'                        modules_prefix += "." + itemname'
p164
sI91
S'                    return result'
p165
sI92
S'                else:'
p166
sI93
S'                    # import like "from x import a, b, ..."'
p167
sI94
S'                    pname = modules_prefix + "." + name'
p168
sI95
S'                    return base_importer(pname, globals, locals, fromlist, level)'
p169
ssg83
S"(name='mnLicense', globals={'__builtins__': {'ArithmeticError': <type 'exceptions.ArithmeticError'>, 'AssertionError': <type 'exceptions.AssertionError'>, 'AttributeError': <type 'exceptions.AttributeError'>, 'BaseException': <type 'exceptions.BaseException'>, 'BufferError': <type 'exceptions.BufferError'>, 'BytesWarning': <type 'exceptions.BytesWarning'>, 'DeprecationWarning': <type 'exceptions.DeprecationWarning'>, 'EOFError': <type 'exceptions.EOFError'>, 'Ellipsis': Ellipsis, 'EnvironmentError': <type 'exceptions.EnvironmentError'>, ...}, '__doc__': None, '__file__': None, '__name__': None, '__package__': None, 'json': None, 'os': None, 'platform': None, 'thread': None, 'threading': None, ...}, locals={'__builtins__': {'ArithmeticError': <type 'exceptions.ArithmeticError'>, 'AssertionError': <type 'exceptions.AssertionError'>, 'AttributeError': <type 'exceptions.AttributeError'>, 'BaseException': <type 'exceptions.BaseException'>, 'BufferError': <type 'exceptions.BufferError'>, 'BytesWarning': <type 'exceptions.BytesWarning'>, 'DeprecationWarning': <type 'exceptions.DeprecationWarning'>, 'EOFError': <type 'exceptions.EOFError'>, 'Ellipsis': Ellipsis, 'EnvironmentError': <type 'exceptions.EnvironmentError'>, ...}, '__doc__': None, '__file__': None, '__name__': None, '__package__': None, 'json': None, 'os': None, 'platform': None, 'thread': None, 'threading': None, ...}, fromlist=('MNLicense',), level=-1)"
p170
sg85
g128
sa(dp171
g62
S'/usr/nc-home/gap2py/web2py/applications/gap2py/modules/mnLicense.py'
p172
sg64
(dp173
S'AES'
p174
g91
sS'Crypto'
p175
g91
ssg70
I5
sg71
(dp176
I2
S'import binascii'
p177
sI3
S'import os'
p178
sI4
S'import base64'
p179
sI5
S'from Crypto.Cipher import AES'
p180
sI6
S'from pyDes import *'
p181
sI7
S''
sI8
S''
sI9
S'class MNCrypt():'
p182
sI10
S'    def __init__(self, key):'
p183
sI11
S'        self.key = key'
p184
ssg83
S'()'
p185
sg85
g100
sa(dp186
g62
S'/usr/nc-home/gap2py/web2py/gluon/custom_import.py'
p187
sg64
(dp188
S'fromlist'
p189
S"('AES',)"
p190
sS'level'
p191
S'-1'
p192
sS'base_importer'
p193
S'<built-in function __import__>'
p194
sS'globals'
p195
S"{'__builtins__': {'ArithmeticError': <type 'exceptions.ArithmeticError'>, 'AssertionError': <type 'exceptions.AssertionError'>, 'AttributeError': <type 'exceptions.AttributeError'>, 'BaseException': <type 'exceptions.BaseException'>, 'BufferError': <type 'exceptions.BufferError'>, 'BytesWarning': <type 'exceptions.BytesWarning'>, 'DeprecationWarning': <type 'exceptions.DeprecationWarning'>, 'EOFError': <type 'exceptions.EOFError'>, 'Ellipsis': Ellipsis, 'EnvironmentError': <type 'exceptions.EnvironmentError'>, ...}, '__doc__': None, '__file__': None, '__name__': None, '__package__': None, 'base64': None, 'binascii': None, 'json': None, 'os': None}"
p196
sS'pname'
p197
S"'applications.gap2py.modules.Crypto.Cipher'"
p198
sS'locals'
p199
S"{'__builtins__': {'ArithmeticError': <type 'exceptions.ArithmeticError'>, 'AssertionError': <type 'exceptions.AssertionError'>, 'AttributeError': <type 'exceptions.AttributeError'>, 'BaseException': <type 'exceptions.BaseException'>, 'BufferError': <type 'exceptions.BufferError'>, 'BytesWarning': <type 'exceptions.BytesWarning'>, 'DeprecationWarning': <type 'exceptions.DeprecationWarning'>, 'EOFError': <type 'exceptions.EOFError'>, 'Ellipsis': Ellipsis, 'EnvironmentError': <type 'exceptions.EnvironmentError'>, ...}, '__doc__': None, '__file__': None, '__name__': None, '__package__': None, 'base64': None, 'binascii': None, 'json': None, 'os': None}"
p200
ssg70
I95
sg71
(dp201
I96
S'        except ImportError, e1:'
p202
sI97
S'            import_tb = sys.exc_info()[2]'
p203
sI98
S'            try:'
p204
sI99
S'                return NATIVE_IMPORTER(name, globals, locals, fromlist, level)'
p205
sI90
S'                        modules_prefix += "." + itemname'
p206
sI91
S'                    return result'
p207
sI92
S'                else:'
p208
sI93
S'                    # import like "from x import a, b, ..."'
p209
sI94
S'                    pname = modules_prefix + "." + name'
p210
sI95
S'                    return base_importer(pname, globals, locals, fromlist, level)'
p211
ssg83
S"(name='Crypto.Cipher', globals={'__builtins__': {'ArithmeticError': <type 'exceptions.ArithmeticError'>, 'AssertionError': <type 'exceptions.AssertionError'>, 'AttributeError': <type 'exceptions.AttributeError'>, 'BaseException': <type 'exceptions.BaseException'>, 'BufferError': <type 'exceptions.BufferError'>, 'BytesWarning': <type 'exceptions.BytesWarning'>, 'DeprecationWarning': <type 'exceptions.DeprecationWarning'>, 'EOFError': <type 'exceptions.EOFError'>, 'Ellipsis': Ellipsis, 'EnvironmentError': <type 'exceptions.EnvironmentError'>, ...}, '__doc__': None, '__file__': None, '__name__': None, '__package__': None, 'base64': None, 'binascii': None, 'json': None, 'os': None}, locals={'__builtins__': {'ArithmeticError': <type 'exceptions.ArithmeticError'>, 'AssertionError': <type 'exceptions.AssertionError'>, 'AttributeError': <type 'exceptions.AttributeError'>, 'BaseException': <type 'exceptions.BaseException'>, 'BufferError': <type 'exceptions.BufferError'>, 'BytesWarning': <type 'exceptions.BytesWarning'>, 'DeprecationWarning': <type 'exceptions.DeprecationWarning'>, 'EOFError': <type 'exceptions.EOFError'>, 'Ellipsis': Ellipsis, 'EnvironmentError': <type 'exceptions.EnvironmentError'>, ...}, '__doc__': None, '__file__': None, '__name__': None, '__package__': None, 'base64': None, 'binascii': None, 'json': None, 'os': None}, fromlist=('AES',), level=-1)"
p212
sg85
g128
sasS'pyver'
p213
S'Python 2.7.12: /usr/local/bin/python (prefix: /usr/local)'
p214
sS'session'
p215
g57
(S's\x1a\x00\x00\x00<div><table></table></div>'
tRp216
sS'etype'
p217
S"<type 'exceptions.ImportError'>"
p218
sS'date'
p219
S'Fri Jan 24 20:06:22 2014'
p220
sS'response'
p221
g57
(S's:\x16\x00\x00<div><table><tr><td style="font-weight:bold;vertical-align:top;">body</td><td style="vertical-align:top;">:</td><td><div>&lt;cStringIO.StringO object at 0x8080eac00&gt;</div></td></tr><tr><td style="font-weight:bold;vertical-align:top;">cookies</td><td style="vertical-align:top;">:</td><td><div><table><tr><td style="font-weight:bold;vertical-align:top;">session_id_gap2py</td><td style="vertical-align:top;">:</td><td><div>192.168.199.224-50205db7-8090-4bb1-83b7-1e46b4a021ec<table><tr><td style="font-weight:bold;vertical-align:top;">comment</td><td style="vertical-align:top;">:</td><td><div></div></td></tr><tr><td style="font-weight:bold;vertical-align:top;">domain</td><td style="vertical-align:top;">:</td><td><div></div></td></tr><tr><td style="font-weight:bold;vertical-align:top;">expires</td><td style="vertical-align:top;">:</td><td><div></div></td></tr><tr><td style="font-weight:bold;vertical-align:top;">httponly</td><td style="vertical-align:top;">:</td><td><div></div></td></tr><tr><td style="font-weight:bold;vertical-align:top;">max-age</td><td style="vertical-align:top;">:</td><td><div></div></td></tr><tr><td style="font-weight:bold;vertical-align:top;">path</td><td style="vertical-align:top;">:</td><td><div>/</div></td></tr><tr><td style="font-weight:bold;vertical-align:top;">secure</td><td style="vertical-align:top;">:</td><td><div></div></td></tr><tr><td style="font-weight:bold;vertical-align:top;">version</td><td style="vertical-align:top;">:</td><td><div></div></td></tr></table></div></td></tr></table></div></td></tr><tr><td style="font-weight:bold;vertical-align:top;">delimiters</td><td style="vertical-align:top;">:</td><td><div><table><tr><td><div>{{</div></td></tr><tr><td><div>}}</div></td></tr></table></div></td></tr><tr><td style="font-weight:bold;vertical-align:top;">files</td><td style="vertical-align:top;">:</td><td><div><table></table></div></td></tr><tr><td style="font-weight:bold;vertical-align:top;">flash</td><td style="vertical-align:top;">:</td><td><div></div></td></tr><tr><td style="font-weight:bold;vertical-align:top;">form_label_separator</td><td style="vertical-align:top;">:</td><td><div>: </div></td></tr><tr><td style="font-weight:bold;vertical-align:top;">formstyle</td><td style="vertical-align:top;">:</td><td><div>table3cols</div></td></tr><tr><td style="font-weight:bold;vertical-align:top;">generic_patterns</td><td style="vertical-align:top;">:</td><td><div><table><tr><td><div>*</div></td></tr></table></div></td></tr><tr><td style="font-weight:bold;vertical-align:top;">headers</td><td style="vertical-align:top;">:</td><td><div><table><tr><td style="font-weight:bold;vertical-align:top;">X-Powered-By</td><td style="vertical-align:top;">:</td><td><div>web2py</div></td></tr></table></div></td></tr><tr><td style="font-weight:bold;vertical-align:top;">menu</td><td style="vertical-align:top;">:</td><td><div><table></table></div></td></tr><tr><td style="font-weight:bold;vertical-align:top;">meta</td><td style="vertical-align:top;">:</td><td><div><table></table></div></td></tr><tr><td style="font-weight:bold;vertical-align:top;">models_to_run</td><td style="vertical-align:top;">:</td><td><div><table><tr><td><div>^\\w+\\.py$</div></td></tr><tr><td><div>^index/\\w+\\.py$</div></td></tr><tr><td><div>^index/index/\\w+\\.py$</div></td></tr></table></div></td></tr><tr><td style="font-weight:bold;vertical-align:top;">postprocessing</td><td style="vertical-align:top;">:</td><td><div><table></table></div></td></tr><tr><td style="font-weight:bold;vertical-align:top;">session_client</td><td style="vertical-align:top;">:</td><td><div>192.168.199.224</div></td></tr><tr><td style="font-weight:bold;vertical-align:top;">session_cookie_compression_level</td><td style="vertical-align:top;">:</td><td><div>None</div></td></tr><tr><td style="font-weight:bold;vertical-align:top;">session_cookie_expires</td><td style="vertical-align:top;">:</td><td><div>None</div></td></tr><tr><td style="font-weight:bold;vertical-align:top;">session_data_name</td><td style="vertical-align:top;">:</td><td><div>session_data_gap2py</div></td></tr><tr><td style="font-weight:bold;vertical-align:top;">session_file</td><td style="vertical-align:top;">:</td><td><div>None</div></td></tr><tr><td style="font-weight:bold;vertical-align:top;">session_filename</td><td style="vertical-align:top;">:</td><td><div>/usr/nc-home/gap2py/web2py/applications/gap2py/sessions/192.168.199.224-50205db7-8090-4bb1-83b7-1e46b4a021ec</div></td></tr><tr><td style="font-weight:bold;vertical-align:top;">session_hash</td><td style="vertical-align:top;">:</td><td><div>c0762cbf4baf7f9af97c051e7fcb8083</div></td></tr><tr><td style="font-weight:bold;vertical-align:top;">session_id</td><td style="vertical-align:top;">:</td><td><div>192.168.199.224-50205db7-8090-4bb1-83b7-1e46b4a021ec</div></td></tr><tr><td style="font-weight:bold;vertical-align:top;">session_id_name</td><td style="vertical-align:top;">:</td><td><div>session_id_gap2py</div></td></tr><tr><td style="font-weight:bold;vertical-align:top;">session_masterapp</td><td style="vertical-align:top;">:</td><td><div>gap2py</div></td></tr><tr><td style="font-weight:bold;vertical-align:top;">session_new</td><td style="vertical-align:top;">:</td><td><div>True</div></td></tr><tr><td style="font-weight:bold;vertical-align:top;">session_storage_type</td><td style="vertical-align:top;">:</td><td><div>file</div></td></tr><tr><td style="font-weight:bold;vertical-align:top;">status</td><td style="vertical-align:top;">:</td><td><div>200</div></td></tr><tr><td style="font-weight:bold;vertical-align:top;">view</td><td style="vertical-align:top;">:</td><td><div>index/index.html</div></td></tr></table></div>'
tRp222
sS'locals'
p223
(dp224
S'fromlist'
p225
S"('AES',)"
p226
sS'modules_prefix'
p227
S"'applications.gap2py.modules'"
p228
sS'name'
p229
S"'Crypto.Cipher'"
p230
sS'level'
p231
S'-1'
p232
sS'items'
p233
S"['', 'usr', 'nc-home', 'gap2py', 'web2py', 'applications', 'gap2py']"
p234
sS'base_importer'
p235
S'<built-in function __import__>'
p236
sS'globals'
p237
S"{'__builtins__': {'ArithmeticError': <type 'exceptions.ArithmeticError'>, 'AssertionError': <type 'exceptions.AssertionError'>, 'AttributeError': <type 'exceptions.AttributeError'>, 'BaseException': <type 'exceptions.BaseException'>, 'BufferError': <type 'exceptions.BufferError'>, 'BytesWarning': <type 'exceptions.BytesWarning'>, 'DeprecationWarning': <type 'exceptions.DeprecationWarning'>, 'EOFError': <type 'exceptions.EOFError'>, 'Ellipsis': Ellipsis, 'EnvironmentError': <type 'exceptions.EnvironmentError'>, ...}, '__doc__': None, '__file__': None, '__name__': None, '__package__': None, 'base64': None, 'binascii': None, 'json': None, 'os': None}"
p238
sS'pname'
p239
S"'applications.gap2py.modules.Crypto.Cipher'"
p240
sS'e3'
p241
S"ImportError('No module named Crypto.Cipher',)"
p242
sS'e1'
p243
S"ImportError('No module named Crypto.Cipher',)"
p244
sS'import_tb'
p245
S'None'
p246
sg223
S"{'__builtins__': {'ArithmeticError': <type 'exceptions.ArithmeticError'>, 'AssertionError': <type 'exceptions.AssertionError'>, 'AttributeError': <type 'exceptions.AttributeError'>, 'BaseException': <type 'exceptions.BaseException'>, 'BufferError': <type 'exceptions.BufferError'>, 'BytesWarning': <type 'exceptions.BytesWarning'>, 'DeprecationWarning': <type 'exceptions.DeprecationWarning'>, 'EOFError': <type 'exceptions.EOFError'>, 'Ellipsis': Ellipsis, 'EnvironmentError': <type 'exceptions.EnvironmentError'>, ...}, '__doc__': None, '__file__': None, '__name__': None, '__package__': None, 'base64': None, 'binascii': None, 'json': None, 'os': None}"
p247
sS'oname'
p248
S"'Crypto.Cipher'"
p249
sssS'traceback'
p250
S'Traceback (most recent call last):\n  File "/usr/nc-home/gap2py/web2py/gluon/restricted.py", line 227, in restricted\n    exec ccode in environment\n  File "/usr/nc-home/gap2py/web2py/applications/gap2py/controllers/index.py", line 6, in <module>\n    from zcommon import *\n  File "/usr/nc-home/gap2py/web2py/gluon/custom_import.py", line 95, in custom_importer\n    return base_importer(pname, globals, locals, fromlist, level)\n  File "applications/gap2py/modules/zcommon.py", line 4, in <module>\n    from mnLicense import MNLicense\n  File "/usr/nc-home/gap2py/web2py/gluon/custom_import.py", line 95, in custom_importer\n    return base_importer(pname, globals, locals, fromlist, level)\n  File "applications/gap2py/modules/mnLicense.py", line 5, in <module>\n    from Crypto.Cipher import AES\n  File "/usr/nc-home/gap2py/web2py/gluon/custom_import.py", line 95, in custom_importer\n    return base_importer(pname, globals, locals, fromlist, level)\nImportError: No module named Crypto.Cipher\n'
p251
s.